
libc-tests/entry-static.exe:     file format elf64-littleriscv


Disassembly of section .text:

0000000000010158 <exit>:
exit():
   10158:	fe010113          	addi	sp,sp,-32
   1015c:	00a13423          	sd	a0,8(sp)
   10160:	00113c23          	sd	ra,24(sp)
   10164:	3151c0ef          	jal	ra,2cc78 <__funcs_on_exit>
   10168:	3151c0ef          	jal	ra,2cc7c <__libc_exit_fini>
   1016c:	7e13d0ef          	jal	ra,4e14c <__stdio_exit>
   10170:	00813503          	ld	a0,8(sp)
   10174:	2711c0ef          	jal	ra,2cbe4 <_Exit>

0000000000010178 <argv_main>:
main():
/home/user/new-os-test/testsuits-for-oskernel/libc-test/src/functional/argv.c:9

#define TEST(c, ...) \
	( (c) || (t_error(#c " failed: " __VA_ARGS__),0) )

int main(int argc, char **argv)
{
   10178:	81010113          	addi	sp,sp,-2032
   1017c:	fffff337          	lui	t1,0xfffff
   10180:	7e813023          	sd	s0,2016(sp)
   10184:	7e113423          	sd	ra,2024(sp)
   10188:	7e030313          	addi	t1,t1,2016 # fffffffffffff7e0 <__BSS_END__+0xffffffffffe515f0>
/home/user/new-os-test/testsuits-for-oskernel/libc-test/src/functional/argv.c:11
	char buf[PATH_MAX];
	TEST(argc == 1, "argc should be 1\n");
   1018c:	00100793          	li	a5,1
/home/user/new-os-test/testsuits-for-oskernel/libc-test/src/functional/argv.c:9
{
   10190:	00610133          	add	sp,sp,t1
   10194:	00058413          	mv	s0,a1
/home/user/new-os-test/testsuits-for-oskernel/libc-test/src/functional/argv.c:11
	TEST(argc == 1, "argc should be 1\n");
   10198:	00f50863          	beq	a0,a5,101a8 <argv_main+0x30>
/home/user/new-os-test/testsuits-for-oskernel/libc-test/src/functional/argv.c:11 (discriminator 2)
   1019c:	00052537          	lui	a0,0x52
   101a0:	be850513          	addi	a0,a0,-1048 # 51be8 <CSWTCH.18+0x130>
   101a4:	5d1170ef          	jal	ra,27f74 <t_printf>
/home/user/new-os-test/testsuits-for-oskernel/libc-test/src/functional/argv.c:12
	TEST(argv[0] != 0, "argv[0] should not be NULL\n");
   101a8:	00043783          	ld	a5,0(s0)
   101ac:	00079863          	bnez	a5,101bc <argv_main+0x44>
/home/user/new-os-test/testsuits-for-oskernel/libc-test/src/functional/argv.c:12 (discriminator 2)
   101b0:	00052537          	lui	a0,0x52
   101b4:	c2850513          	addi	a0,a0,-984 # 51c28 <CSWTCH.18+0x170>
   101b8:	5bd170ef          	jal	ra,27f74 <t_printf>
/home/user/new-os-test/testsuits-for-oskernel/libc-test/src/functional/argv.c:13
	TEST(argv[1] == 0, "argv[1] should be NULL\n");
   101bc:	00843783          	ld	a5,8(s0)
   101c0:	00078863          	beqz	a5,101d0 <argv_main+0x58>
/home/user/new-os-test/testsuits-for-oskernel/libc-test/src/functional/argv.c:13 (discriminator 2)
   101c4:	00052537          	lui	a0,0x52
   101c8:	c7850513          	addi	a0,a0,-904 # 51c78 <CSWTCH.18+0x1c0>
   101cc:	5a9170ef          	jal	ra,27f74 <t_printf>
/home/user/new-os-test/testsuits-for-oskernel/libc-test/src/functional/argv.c:14
	TEST(argv[0][0] != 0, "argv[0] should not be empty\n");
   101d0:	00043783          	ld	a5,0(s0)
   101d4:	0007c783          	lbu	a5,0(a5)
   101d8:	00079863          	bnez	a5,101e8 <argv_main+0x70>
/home/user/new-os-test/testsuits-for-oskernel/libc-test/src/functional/argv.c:14 (discriminator 2)
   101dc:	00052537          	lui	a0,0x52
   101e0:	cc050513          	addi	a0,a0,-832 # 51cc0 <CSWTCH.18+0x208>
   101e4:	591170ef          	jal	ra,27f74 <t_printf>
/home/user/new-os-test/testsuits-for-oskernel/libc-test/src/functional/argv.c:15
	TEST(snprintf(buf, sizeof buf, "%s", argv[0]) < sizeof buf, "argv[0] is not a valid path\n");
   101e8:	00043683          	ld	a3,0(s0)
   101ec:	000017b7          	lui	a5,0x1
   101f0:	002787b3          	add	a5,a5,sp
   101f4:	00052637          	lui	a2,0x52
   101f8:	fffff537          	lui	a0,0xfffff
   101fc:	00a78533          	add	a0,a5,a0
   10200:	9f860613          	addi	a2,a2,-1544 # 519f8 <__clzdi2+0x9c>
   10204:	000015b7          	lui	a1,0x1
   10208:	0282a0ef          	jal	ra,3a230 <snprintf>
   1020c:	0005051b          	sext.w	a0,a0
   10210:	000017b7          	lui	a5,0x1
   10214:	00f56863          	bltu	a0,a5,10224 <argv_main+0xac>
/home/user/new-os-test/testsuits-for-oskernel/libc-test/src/functional/argv.c:15 (discriminator 2)
   10218:	00052537          	lui	a0,0x52
   1021c:	d1050513          	addi	a0,a0,-752 # 51d10 <CSWTCH.18+0x258>
   10220:	555170ef          	jal	ra,27f74 <t_printf>
/home/user/new-os-test/testsuits-for-oskernel/libc-test/src/functional/argv.c:17
	return t_status;
}
   10224:	00001337          	lui	t1,0x1
   10228:	82030313          	addi	t1,t1,-2016 # 820 <c1+0x80a>
/home/user/new-os-test/testsuits-for-oskernel/libc-test/src/functional/argv.c:16
	return t_status;
   1022c:	bb01a503          	lw	a0,-1104(gp) # a8a38 <_edata>
/home/user/new-os-test/testsuits-for-oskernel/libc-test/src/functional/argv.c:17
}
   10230:	00610133          	add	sp,sp,t1
   10234:	7e813083          	ld	ra,2024(sp)
   10238:	7e013403          	ld	s0,2016(sp)
   1023c:	0005051b          	sext.w	a0,a0
   10240:	7f010113          	addi	sp,sp,2032
   10244:	00008067          	ret

0000000000010248 <basename_main>:
/home/user/new-os-test/testsuits-for-oskernel/libc-test/src/functional/basename.c:15
	if (strcmp(want, got) != 0) \
		t_error("basename(\"%s\") got \"%s\" want \"%s\"\n", path, got, want); \
}

int main()
{
   10248:	f5010113          	addi	sp,sp,-176
/home/user/new-os-test/testsuits-for-oskernel/libc-test/src/functional/basename.c:16
	if (strcmp(basename(0), ".") != 0)
   1024c:	00000513          	li	a0,0
/home/user/new-os-test/testsuits-for-oskernel/libc-test/src/functional/basename.c:15
{
   10250:	0a813023          	sd	s0,160(sp)
   10254:	0a113423          	sd	ra,168(sp)
   10258:	08913c23          	sd	s1,152(sp)
   1025c:	09213823          	sd	s2,144(sp)
   10260:	09313423          	sd	s3,136(sp)
/home/user/new-os-test/testsuits-for-oskernel/libc-test/src/functional/basename.c:16
	if (strcmp(basename(0), ".") != 0)
   10264:	00052437          	lui	s0,0x52
   10268:	3d81f0ef          	jal	ra,2f640 <basename>
   1026c:	d8840593          	addi	a1,s0,-632 # 51d88 <CSWTCH.18+0x2d0>
   10270:	78d2e0ef          	jal	ra,3f1fc <strcmp>
   10274:	00050e63          	beqz	a0,10290 <basename_main+0x48>
/home/user/new-os-test/testsuits-for-oskernel/libc-test/src/functional/basename.c:17
		t_error("basename(0) returned \"%s\"; expected \".\"\n", basename(0));
   10278:	00000513          	li	a0,0
   1027c:	3c41f0ef          	jal	ra,2f640 <basename>
   10280:	00050593          	mv	a1,a0
   10284:	00052537          	lui	a0,0x52
   10288:	d9050513          	addi	a0,a0,-624 # 51d90 <CSWTCH.18+0x2d8>
   1028c:	4e9170ef          	jal	ra,27f74 <t_printf>
/home/user/new-os-test/testsuits-for-oskernel/libc-test/src/functional/basename.c:18
	T("", ".");
   10290:	0006f4b7          	lui	s1,0x6f
   10294:	cc848593          	addi	a1,s1,-824 # 6ecc8 <t+0x1758>
   10298:	01810513          	addi	a0,sp,24
   1029c:	7852e0ef          	jal	ra,3f220 <strcpy>
   102a0:	3a01f0ef          	jal	ra,2f640 <basename>
   102a4:	00050593          	mv	a1,a0
   102a8:	00a13423          	sd	a0,8(sp)
   102ac:	d8840513          	addi	a0,s0,-632
   102b0:	74d2e0ef          	jal	ra,3f1fc <strcmp>
   102b4:	00813603          	ld	a2,8(sp)
   102b8:	00050c63          	beqz	a0,102d0 <basename_main+0x88>
/home/user/new-os-test/testsuits-for-oskernel/libc-test/src/functional/basename.c:18 (discriminator 1)
   102bc:	00052537          	lui	a0,0x52
   102c0:	d8840693          	addi	a3,s0,-632
   102c4:	cc848593          	addi	a1,s1,-824
   102c8:	dd850513          	addi	a0,a0,-552 # 51dd8 <CSWTCH.18+0x320>
   102cc:	4a9170ef          	jal	ra,27f74 <t_printf>
/home/user/new-os-test/testsuits-for-oskernel/libc-test/src/functional/basename.c:19
	T("/usr/lib", "lib");
   102d0:	000524b7          	lui	s1,0x52
   102d4:	e2048593          	addi	a1,s1,-480 # 51e20 <CSWTCH.18+0x368>
   102d8:	01810513          	addi	a0,sp,24
   102dc:	7452e0ef          	jal	ra,3f220 <strcpy>
   102e0:	3601f0ef          	jal	ra,2f640 <basename>
   102e4:	00052937          	lui	s2,0x52
   102e8:	00050593          	mv	a1,a0
   102ec:	00a13423          	sd	a0,8(sp)
   102f0:	e3090513          	addi	a0,s2,-464 # 51e30 <CSWTCH.18+0x378>
   102f4:	7092e0ef          	jal	ra,3f1fc <strcmp>
   102f8:	00813603          	ld	a2,8(sp)
   102fc:	00050c63          	beqz	a0,10314 <basename_main+0xcc>
/home/user/new-os-test/testsuits-for-oskernel/libc-test/src/functional/basename.c:19 (discriminator 1)
   10300:	00052537          	lui	a0,0x52
   10304:	e3090693          	addi	a3,s2,-464
   10308:	e2048593          	addi	a1,s1,-480
   1030c:	e3850513          	addi	a0,a0,-456 # 51e38 <CSWTCH.18+0x380>
   10310:	465170ef          	jal	ra,27f74 <t_printf>
/home/user/new-os-test/testsuits-for-oskernel/libc-test/src/functional/basename.c:20
	T("/usr/", "usr");
   10314:	000529b7          	lui	s3,0x52
   10318:	e8098593          	addi	a1,s3,-384 # 51e80 <CSWTCH.18+0x3c8>
   1031c:	01810513          	addi	a0,sp,24
   10320:	7012e0ef          	jal	ra,3f220 <strcpy>
   10324:	31c1f0ef          	jal	ra,2f640 <basename>
   10328:	000524b7          	lui	s1,0x52
   1032c:	00050593          	mv	a1,a0
   10330:	00a13423          	sd	a0,8(sp)
   10334:	e8848513          	addi	a0,s1,-376 # 51e88 <CSWTCH.18+0x3d0>
   10338:	6c52e0ef          	jal	ra,3f1fc <strcmp>
   1033c:	00813603          	ld	a2,8(sp)
   10340:	00050c63          	beqz	a0,10358 <basename_main+0x110>
/home/user/new-os-test/testsuits-for-oskernel/libc-test/src/functional/basename.c:20 (discriminator 1)
   10344:	00052537          	lui	a0,0x52
   10348:	e8848693          	addi	a3,s1,-376
   1034c:	e8098593          	addi	a1,s3,-384
   10350:	e9050513          	addi	a0,a0,-368 # 51e90 <CSWTCH.18+0x3d8>
   10354:	421170ef          	jal	ra,27f74 <t_printf>
/home/user/new-os-test/testsuits-for-oskernel/libc-test/src/functional/basename.c:21
	T("usr/", "usr");
   10358:	000529b7          	lui	s3,0x52
   1035c:	ed898593          	addi	a1,s3,-296 # 51ed8 <CSWTCH.18+0x420>
   10360:	01810513          	addi	a0,sp,24
   10364:	6bd2e0ef          	jal	ra,3f220 <strcpy>
   10368:	2d81f0ef          	jal	ra,2f640 <basename>
   1036c:	00050593          	mv	a1,a0
   10370:	00a13423          	sd	a0,8(sp)
   10374:	e8848513          	addi	a0,s1,-376
   10378:	6852e0ef          	jal	ra,3f1fc <strcmp>
   1037c:	00813603          	ld	a2,8(sp)
   10380:	00050c63          	beqz	a0,10398 <basename_main+0x150>
/home/user/new-os-test/testsuits-for-oskernel/libc-test/src/functional/basename.c:21 (discriminator 1)
   10384:	00052537          	lui	a0,0x52
   10388:	e8848693          	addi	a3,s1,-376
   1038c:	ed898593          	addi	a1,s3,-296
   10390:	ee050513          	addi	a0,a0,-288 # 51ee0 <CSWTCH.18+0x428>
   10394:	3e1170ef          	jal	ra,27f74 <t_printf>
/home/user/new-os-test/testsuits-for-oskernel/libc-test/src/functional/basename.c:22
	T("/", "/");
   10398:	0009f4b7          	lui	s1,0x9f
   1039c:	77848593          	addi	a1,s1,1912 # 9f778 <__pow_log_data+0x1050>
   103a0:	01810513          	addi	a0,sp,24
   103a4:	67d2e0ef          	jal	ra,3f220 <strcpy>
   103a8:	2981f0ef          	jal	ra,2f640 <basename>
   103ac:	00050593          	mv	a1,a0
   103b0:	00a13423          	sd	a0,8(sp)
   103b4:	77848513          	addi	a0,s1,1912
   103b8:	6452e0ef          	jal	ra,3f1fc <strcmp>
   103bc:	00813603          	ld	a2,8(sp)
   103c0:	00050c63          	beqz	a0,103d8 <basename_main+0x190>
/home/user/new-os-test/testsuits-for-oskernel/libc-test/src/functional/basename.c:22 (discriminator 1)
   103c4:	00052537          	lui	a0,0x52
   103c8:	77848693          	addi	a3,s1,1912
   103cc:	77848593          	addi	a1,s1,1912
   103d0:	f2850513          	addi	a0,a0,-216 # 51f28 <CSWTCH.18+0x470>
   103d4:	3a1170ef          	jal	ra,27f74 <t_printf>
/home/user/new-os-test/testsuits-for-oskernel/libc-test/src/functional/basename.c:23
	T("///", "/");
   103d8:	000529b7          	lui	s3,0x52
   103dc:	f7098593          	addi	a1,s3,-144 # 51f70 <CSWTCH.18+0x4b8>
   103e0:	01810513          	addi	a0,sp,24
   103e4:	63d2e0ef          	jal	ra,3f220 <strcpy>
   103e8:	2581f0ef          	jal	ra,2f640 <basename>
   103ec:	00050593          	mv	a1,a0
   103f0:	00a13423          	sd	a0,8(sp)
   103f4:	77848513          	addi	a0,s1,1912
   103f8:	6052e0ef          	jal	ra,3f1fc <strcmp>
   103fc:	00813603          	ld	a2,8(sp)
   10400:	00050c63          	beqz	a0,10418 <basename_main+0x1d0>
/home/user/new-os-test/testsuits-for-oskernel/libc-test/src/functional/basename.c:23 (discriminator 1)
   10404:	00052537          	lui	a0,0x52
   10408:	77848693          	addi	a3,s1,1912
   1040c:	f7098593          	addi	a1,s3,-144
   10410:	f7850513          	addi	a0,a0,-136 # 51f78 <CSWTCH.18+0x4c0>
   10414:	361170ef          	jal	ra,27f74 <t_printf>
/home/user/new-os-test/testsuits-for-oskernel/libc-test/src/functional/basename.c:24
	T("//usr//lib//", "lib");
   10418:	000524b7          	lui	s1,0x52
   1041c:	fc048593          	addi	a1,s1,-64 # 51fc0 <CSWTCH.18+0x508>
   10420:	01810513          	addi	a0,sp,24
   10424:	5fd2e0ef          	jal	ra,3f220 <strcpy>
   10428:	2181f0ef          	jal	ra,2f640 <basename>
   1042c:	00050593          	mv	a1,a0
   10430:	00a13423          	sd	a0,8(sp)
   10434:	e3090513          	addi	a0,s2,-464
   10438:	5c52e0ef          	jal	ra,3f1fc <strcmp>
   1043c:	00813603          	ld	a2,8(sp)
   10440:	00050c63          	beqz	a0,10458 <basename_main+0x210>
/home/user/new-os-test/testsuits-for-oskernel/libc-test/src/functional/basename.c:24 (discriminator 1)
   10444:	00052537          	lui	a0,0x52
   10448:	e3090693          	addi	a3,s2,-464
   1044c:	fc048593          	addi	a1,s1,-64
   10450:	fd050513          	addi	a0,a0,-48 # 51fd0 <CSWTCH.18+0x518>
   10454:	321170ef          	jal	ra,27f74 <t_printf>
/home/user/new-os-test/testsuits-for-oskernel/libc-test/src/functional/basename.c:25
	T(".", ".");
   10458:	d8840593          	addi	a1,s0,-632
   1045c:	01810513          	addi	a0,sp,24
   10460:	5c12e0ef          	jal	ra,3f220 <strcpy>
   10464:	1dc1f0ef          	jal	ra,2f640 <basename>
   10468:	00050593          	mv	a1,a0
   1046c:	00a13423          	sd	a0,8(sp)
   10470:	d8840513          	addi	a0,s0,-632
   10474:	5892e0ef          	jal	ra,3f1fc <strcmp>
   10478:	00813603          	ld	a2,8(sp)
   1047c:	00050c63          	beqz	a0,10494 <basename_main+0x24c>
/home/user/new-os-test/testsuits-for-oskernel/libc-test/src/functional/basename.c:25 (discriminator 1)
   10480:	00052537          	lui	a0,0x52
   10484:	d8840693          	addi	a3,s0,-632
   10488:	d8840593          	addi	a1,s0,-632
   1048c:	01850513          	addi	a0,a0,24 # 52018 <CSWTCH.18+0x560>
   10490:	2e5170ef          	jal	ra,27f74 <t_printf>
/home/user/new-os-test/testsuits-for-oskernel/libc-test/src/functional/basename.c:26
	T("..", "..");
   10494:	00053437          	lui	s0,0x53
   10498:	a8040593          	addi	a1,s0,-1408 # 52a80 <CSWTCH.18+0xfc8>
   1049c:	01810513          	addi	a0,sp,24
   104a0:	5812e0ef          	jal	ra,3f220 <strcpy>
   104a4:	19c1f0ef          	jal	ra,2f640 <basename>
   104a8:	00050593          	mv	a1,a0
   104ac:	00a13423          	sd	a0,8(sp)
   104b0:	a8040513          	addi	a0,s0,-1408
   104b4:	5492e0ef          	jal	ra,3f1fc <strcmp>
   104b8:	00813603          	ld	a2,8(sp)
   104bc:	00050c63          	beqz	a0,104d4 <basename_main+0x28c>
/home/user/new-os-test/testsuits-for-oskernel/libc-test/src/functional/basename.c:26 (discriminator 1)
   104c0:	00052537          	lui	a0,0x52
   104c4:	a8040693          	addi	a3,s0,-1408
   104c8:	a8040593          	addi	a1,s0,-1408
   104cc:	06050513          	addi	a0,a0,96 # 52060 <CSWTCH.18+0x5a8>
   104d0:	2a5170ef          	jal	ra,27f74 <t_printf>
/home/user/new-os-test/testsuits-for-oskernel/libc-test/src/functional/basename.c:27
	return t_status;
   104d4:	bb01a503          	lw	a0,-1104(gp) # a8a38 <_edata>
/home/user/new-os-test/testsuits-for-oskernel/libc-test/src/functional/basename.c:28
}
   104d8:	0a813083          	ld	ra,168(sp)
   104dc:	0a013403          	ld	s0,160(sp)
   104e0:	09813483          	ld	s1,152(sp)
   104e4:	09013903          	ld	s2,144(sp)
   104e8:	08813983          	ld	s3,136(sp)
   104ec:	0005051b          	sext.w	a0,a0
   104f0:	0b010113          	addi	sp,sp,176
   104f4:	00008067          	ret

00000000000104f8 <clocale_mbfuncs_main>:
/home/user/new-os-test/testsuits-for-oskernel/libc-test/src/functional/clocale_mbfuncs.c:12
#include <langinfo.h>
#include <limits.h>
#include "test.h"

int main(void)
{
   104f8:	81010113          	addi	sp,sp,-2032
/home/user/new-os-test/testsuits-for-oskernel/libc-test/src/functional/clocale_mbfuncs.c:21
	char s[MB_LEN_MAX*256];
	size_t rv;
	int c;
	int ni_errors=0;

	setlocale(LC_CTYPE, "C");
   104fc:	000525b7          	lui	a1,0x52
/home/user/new-os-test/testsuits-for-oskernel/libc-test/src/functional/clocale_mbfuncs.c:12
{
   10500:	7e113423          	sd	ra,2024(sp)
   10504:	7e813023          	sd	s0,2016(sp)
   10508:	7c913c23          	sd	s1,2008(sp)
   1050c:	7d213823          	sd	s2,2000(sp)
   10510:	7d313423          	sd	s3,1992(sp)
   10514:	7d413023          	sd	s4,1984(sp)
   10518:	7b513c23          	sd	s5,1976(sp)
   1051c:	7b613823          	sd	s6,1968(sp)
   10520:	7b713423          	sd	s7,1960(sp)
   10524:	7b813023          	sd	s8,1952(sp)
   10528:	79913c23          	sd	s9,1944(sp)
/home/user/new-os-test/testsuits-for-oskernel/libc-test/src/functional/clocale_mbfuncs.c:21
	setlocale(LC_CTYPE, "C");
   1052c:	0a858593          	addi	a1,a1,168 # 520a8 <CSWTCH.18+0x5f0>
/home/user/new-os-test/testsuits-for-oskernel/libc-test/src/functional/clocale_mbfuncs.c:12
{
   10530:	b6010113          	addi	sp,sp,-1184
/home/user/new-os-test/testsuits-for-oskernel/libc-test/src/functional/clocale_mbfuncs.c:21
	setlocale(LC_CTYPE, "C");
   10534:	00000513          	li	a0,0
   10538:	5f81e0ef          	jal	ra,2eb30 <setlocale>
/home/user/new-os-test/testsuits-for-oskernel/libc-test/src/functional/clocale_mbfuncs.c:23

	if (MB_CUR_MAX != 1) t_error("MB_CUR_MAX = %d, expected 1\n", (int)MB_CUR_MAX);
   1053c:	2111b0ef          	jal	ra,2bf4c <__ctype_get_mb_cur_max>
   10540:	00100793          	li	a5,1
   10544:	00f50c63          	beq	a0,a5,1055c <clocale_mbfuncs_main+0x64>
/home/user/new-os-test/testsuits-for-oskernel/libc-test/src/functional/clocale_mbfuncs.c:23 (discriminator 1)
   10548:	2051b0ef          	jal	ra,2bf4c <__ctype_get_mb_cur_max>
   1054c:	0005059b          	sext.w	a1,a0
   10550:	00052537          	lui	a0,0x52
   10554:	0b050513          	addi	a0,a0,176 # 520b0 <CSWTCH.18+0x5f8>
   10558:	21d170ef          	jal	ra,27f74 <t_printf>
   1055c:	000017b7          	lui	a5,0x1
   10560:	fffff537          	lui	a0,0xfffff
   10564:	c3078713          	addi	a4,a5,-976 # c30 <c1+0xc1a>
   10568:	7f050413          	addi	s0,a0,2032 # fffffffffffff7f0 <__BSS_END__+0xffffffffffe51600>
   1056c:	00270733          	add	a4,a4,sp
   10570:	00870433          	add	s0,a4,s0
/home/user/new-os-test/testsuits-for-oskernel/libc-test/src/functional/clocale_mbfuncs.c:27

	for (i=0; i<256; i++) {
		st = (mbstate_t){0};
		if (mbrtowc(&wc, &(char){i}, 1, &st) != !!i)
   10574:	c3078713          	addi	a4,a5,-976
   10578:	3e050a93          	addi	s5,a0,992
   1057c:	00270733          	add	a4,a4,sp
   10580:	3dc50513          	addi	a0,a0,988
/home/user/new-os-test/testsuits-for-oskernel/libc-test/src/functional/clocale_mbfuncs.c:12
{
   10584:	00040993          	mv	s3,s0
   10588:	00000493          	li	s1,0
/home/user/new-os-test/testsuits-for-oskernel/libc-test/src/functional/clocale_mbfuncs.c:27
		if (mbrtowc(&wc, &(char){i}, 1, &st) != !!i)
   1058c:	01570ab3          	add	s5,a4,s5
   10590:	00a70933          	add	s2,a4,a0
/home/user/new-os-test/testsuits-for-oskernel/libc-test/src/functional/clocale_mbfuncs.c:28
			t_error("mbrtowc failed to convert byte %.2x to wchar_t\n", i);
   10594:	00052bb7          	lui	s7,0x52
/home/user/new-os-test/testsuits-for-oskernel/libc-test/src/functional/clocale_mbfuncs.c:35
			t_error("btowc failed to convert byte %.2x to wchar_t\n", i);
			continue;
		}
		for (j=0; j<i; j++) {
			if (map[j]==map[i])
				t_error("bytes %.2x and %.2x map to same wchar_t %.4x\n", j, i, (unsigned)map[i]);
   10598:	00052c37          	lui	s8,0x52
/home/user/new-os-test/testsuits-for-oskernel/libc-test/src/functional/clocale_mbfuncs.c:30
			t_error("btowc failed to convert byte %.2x to wchar_t\n", i);
   1059c:	00052cb7          	lui	s9,0x52
/home/user/new-os-test/testsuits-for-oskernel/libc-test/src/functional/clocale_mbfuncs.c:27
		if (mbrtowc(&wc, &(char){i}, 1, &st) != !!i)
   105a0:	00001737          	lui	a4,0x1
   105a4:	82870793          	addi	a5,a4,-2008 # 828 <c1+0x812>
   105a8:	002787b3          	add	a5,a5,sp
   105ac:	00978023          	sb	s1,0(a5)
   105b0:	00078593          	mv	a1,a5
   105b4:	000a8693          	mv	a3,s5
   105b8:	00100613          	li	a2,1
   105bc:	00090513          	mv	a0,s2
/home/user/new-os-test/testsuits-for-oskernel/libc-test/src/functional/clocale_mbfuncs.c:26
		st = (mbstate_t){0};
   105c0:	00013823          	sd	zero,16(sp)
/home/user/new-os-test/testsuits-for-oskernel/libc-test/src/functional/clocale_mbfuncs.c:27
		if (mbrtowc(&wc, &(char){i}, 1, &st) != !!i)
   105c4:	6541f0ef          	jal	ra,2fc18 <mbrtowc>
   105c8:	009037b3          	snez	a5,s1
   105cc:	00f50863          	beq	a0,a5,105dc <clocale_mbfuncs_main+0xe4>
/home/user/new-os-test/testsuits-for-oskernel/libc-test/src/functional/clocale_mbfuncs.c:28
			t_error("mbrtowc failed to convert byte %.2x to wchar_t\n", i);
   105d0:	00048593          	mv	a1,s1
   105d4:	0f8b8513          	addi	a0,s7,248 # 520f8 <CSWTCH.18+0x640>
   105d8:	19d170ef          	jal	ra,27f74 <t_printf>
/home/user/new-os-test/testsuits-for-oskernel/libc-test/src/functional/clocale_mbfuncs.c:29
		if ((map[i]=btowc(i)) == WEOF) {
   105dc:	00048513          	mv	a0,s1
   105e0:	5f01f0ef          	jal	ra,2fbd0 <btowc>
   105e4:	0005051b          	sext.w	a0,a0
   105e8:	00a9a023          	sw	a0,0(s3)
   105ec:	fff00793          	li	a5,-1
   105f0:	46f51063          	bne	a0,a5,10a50 <clocale_mbfuncs_main+0x558>
/home/user/new-os-test/testsuits-for-oskernel/libc-test/src/functional/clocale_mbfuncs.c:30
			t_error("btowc failed to convert byte %.2x to wchar_t\n", i);
   105f4:	00048593          	mv	a1,s1
   105f8:	150c8513          	addi	a0,s9,336 # 52150 <CSWTCH.18+0x698>
   105fc:	179170ef          	jal	ra,27f74 <t_printf>
/home/user/new-os-test/testsuits-for-oskernel/libc-test/src/functional/clocale_mbfuncs.c:25 (discriminator 2)
	for (i=0; i<256; i++) {
   10600:	0014849b          	addiw	s1,s1,1
   10604:	10000793          	li	a5,256
   10608:	00498993          	addi	s3,s3,4
   1060c:	f8f49ae3          	bne	s1,a5,105a0 <clocale_mbfuncs_main+0xa8>
   10610:	00040913          	mv	s2,s0
/home/user/new-os-test/testsuits-for-oskernel/libc-test/src/functional/clocale_mbfuncs.c:39
		}
	}

	for (i=0; i<256; i++) {
   10614:	00000493          	li	s1,0
/home/user/new-os-test/testsuits-for-oskernel/libc-test/src/functional/clocale_mbfuncs.c:40
		if (map[i]==WEOF) continue;
   10618:	fff00a13          	li	s4,-1
/home/user/new-os-test/testsuits-for-oskernel/libc-test/src/functional/clocale_mbfuncs.c:42
		if (wctob(map[i]) != i)
			t_error("wctob failed to convert wchar_t %.4x back to byte %.2x\n", (unsigned)map[i], i);
   1061c:	00052ab7          	lui	s5,0x52
/home/user/new-os-test/testsuits-for-oskernel/libc-test/src/functional/clocale_mbfuncs.c:39
	for (i=0; i<256; i++) {
   10620:	10000993          	li	s3,256
/home/user/new-os-test/testsuits-for-oskernel/libc-test/src/functional/clocale_mbfuncs.c:40
		if (map[i]==WEOF) continue;
   10624:	00092503          	lw	a0,0(s2)
   10628:	01450e63          	beq	a0,s4,10644 <clocale_mbfuncs_main+0x14c>
/home/user/new-os-test/testsuits-for-oskernel/libc-test/src/functional/clocale_mbfuncs.c:41
		if (wctob(map[i]) != i)
   1062c:	5911f0ef          	jal	ra,303bc <wctob>
   10630:	00950a63          	beq	a0,s1,10644 <clocale_mbfuncs_main+0x14c>
/home/user/new-os-test/testsuits-for-oskernel/libc-test/src/functional/clocale_mbfuncs.c:42
			t_error("wctob failed to convert wchar_t %.4x back to byte %.2x\n", (unsigned)map[i], i);
   10634:	00092583          	lw	a1,0(s2)
   10638:	00048613          	mv	a2,s1
   1063c:	200a8513          	addi	a0,s5,512 # 52200 <CSWTCH.18+0x748>
   10640:	135170ef          	jal	ra,27f74 <t_printf>
/home/user/new-os-test/testsuits-for-oskernel/libc-test/src/functional/clocale_mbfuncs.c:39 (discriminator 2)
	for (i=0; i<256; i++) {
   10644:	0014849b          	addiw	s1,s1,1
   10648:	00490913          	addi	s2,s2,4
   1064c:	fd349ce3          	bne	s1,s3,10624 <clocale_mbfuncs_main+0x12c>
/home/user/new-os-test/testsuits-for-oskernel/libc-test/src/functional/clocale_mbfuncs.c:47
	}

	/* covering whole 32-bit range would be too slow... maybe add random high tests? */
	for (i=0; i<0x110000; i++) {
		if (wcschr(map+1, i)) continue;
   10650:	00001737          	lui	a4,0x1
   10654:	c3070693          	addi	a3,a4,-976 # c30 <c1+0xc1a>
   10658:	fffff7b7          	lui	a5,0xfffff
   1065c:	002686b3          	add	a3,a3,sp
   10660:	00f68ab3          	add	s5,a3,a5
/home/user/new-os-test/testsuits-for-oskernel/libc-test/src/functional/clocale_mbfuncs.c:50
		if ((c=wctob(i)) != WEOF && ni_errors++ < 50)
			t_error("wctob accepted non-image wchar_t %.4x as byte %.2x\n", i, c);
		st = (mbstate_t){0};
   10664:	c3070693          	addi	a3,a4,-976
   10668:	002686b3          	add	a3,a3,sp
   1066c:	00f68bb3          	add	s7,a3,a5
/home/user/new-os-test/testsuits-for-oskernel/libc-test/src/functional/clocale_mbfuncs.c:51
		if (wcrtomb(s, i, &st) != -1  && ni_errors++ < 50)
   10670:	c3070693          	addi	a3,a4,-976
   10674:	3e078b13          	addi	s6,a5,992 # fffffffffffff3e0 <__BSS_END__+0xffffffffffe511f0>
   10678:	002686b3          	add	a3,a3,sp
   1067c:	3f078793          	addi	a5,a5,1008
/home/user/new-os-test/testsuits-for-oskernel/libc-test/src/functional/clocale_mbfuncs.c:19
	int ni_errors=0;
   10680:	00000913          	li	s2,0
/home/user/new-os-test/testsuits-for-oskernel/libc-test/src/functional/clocale_mbfuncs.c:46
	for (i=0; i<0x110000; i++) {
   10684:	00000493          	li	s1,0
/home/user/new-os-test/testsuits-for-oskernel/libc-test/src/functional/clocale_mbfuncs.c:47
		if (wcschr(map+1, i)) continue;
   10688:	7f4a8a93          	addi	s5,s5,2036
/home/user/new-os-test/testsuits-for-oskernel/libc-test/src/functional/clocale_mbfuncs.c:51
		if (wcrtomb(s, i, &st) != -1  && ni_errors++ < 50)
   1068c:	01668b33          	add	s6,a3,s6
   10690:	00f689b3          	add	s3,a3,a5
/home/user/new-os-test/testsuits-for-oskernel/libc-test/src/functional/clocale_mbfuncs.c:52
			t_error("wcrtomb accepted non-image wchar_t %.4x\n", i);
   10694:	00052c37          	lui	s8,0x52
/home/user/new-os-test/testsuits-for-oskernel/libc-test/src/functional/clocale_mbfuncs.c:49
			t_error("wctob accepted non-image wchar_t %.4x as byte %.2x\n", i, c);
   10698:	00052cb7          	lui	s9,0x52
/home/user/new-os-test/testsuits-for-oskernel/libc-test/src/functional/clocale_mbfuncs.c:47
		if (wcschr(map+1, i)) continue;
   1069c:	00048593          	mv	a1,s1
   106a0:	000a8513          	mv	a0,s5
   106a4:	70c2f0ef          	jal	ra,3fdb0 <wcschr>
   106a8:	06051663          	bnez	a0,10714 <clocale_mbfuncs_main+0x21c>
/home/user/new-os-test/testsuits-for-oskernel/libc-test/src/functional/clocale_mbfuncs.c:48
		if ((c=wctob(i)) != WEOF && ni_errors++ < 50)
   106ac:	00048513          	mv	a0,s1
   106b0:	50d1f0ef          	jal	ra,303bc <wctob>
   106b4:	fff00793          	li	a5,-1
   106b8:	00050613          	mv	a2,a0
   106bc:	00090a13          	mv	s4,s2
   106c0:	00f50e63          	beq	a0,a5,106dc <clocale_mbfuncs_main+0x1e4>
/home/user/new-os-test/testsuits-for-oskernel/libc-test/src/functional/clocale_mbfuncs.c:48 (discriminator 1)
   106c4:	03100793          	li	a5,49
   106c8:	00190a1b          	addiw	s4,s2,1
   106cc:	0127c863          	blt	a5,s2,106dc <clocale_mbfuncs_main+0x1e4>
/home/user/new-os-test/testsuits-for-oskernel/libc-test/src/functional/clocale_mbfuncs.c:49
			t_error("wctob accepted non-image wchar_t %.4x as byte %.2x\n", i, c);
   106d0:	00048593          	mv	a1,s1
   106d4:	260c8513          	addi	a0,s9,608 # 52260 <CSWTCH.18+0x7a8>
   106d8:	09d170ef          	jal	ra,27f74 <t_printf>
/home/user/new-os-test/testsuits-for-oskernel/libc-test/src/functional/clocale_mbfuncs.c:51
		if (wcrtomb(s, i, &st) != -1  && ni_errors++ < 50)
   106dc:	000b0613          	mv	a2,s6
   106e0:	00048593          	mv	a1,s1
   106e4:	00098513          	mv	a0,s3
/home/user/new-os-test/testsuits-for-oskernel/libc-test/src/functional/clocale_mbfuncs.c:50
		st = (mbstate_t){0};
   106e8:	3e0bb023          	sd	zero,992(s7)
/home/user/new-os-test/testsuits-for-oskernel/libc-test/src/functional/clocale_mbfuncs.c:51
		if (wcrtomb(s, i, &st) != -1  && ni_errors++ < 50)
   106ec:	2191f0ef          	jal	ra,30104 <wcrtomb>
   106f0:	fff00793          	li	a5,-1
   106f4:	000a0913          	mv	s2,s4
   106f8:	00f50e63          	beq	a0,a5,10714 <clocale_mbfuncs_main+0x21c>
/home/user/new-os-test/testsuits-for-oskernel/libc-test/src/functional/clocale_mbfuncs.c:51 (discriminator 1)
   106fc:	03100793          	li	a5,49
   10700:	001a091b          	addiw	s2,s4,1
   10704:	0147c863          	blt	a5,s4,10714 <clocale_mbfuncs_main+0x21c>
/home/user/new-os-test/testsuits-for-oskernel/libc-test/src/functional/clocale_mbfuncs.c:52
			t_error("wcrtomb accepted non-image wchar_t %.4x\n", i);
   10708:	00048593          	mv	a1,s1
   1070c:	2c0c0513          	addi	a0,s8,704 # 522c0 <CSWTCH.18+0x808>
   10710:	065170ef          	jal	ra,27f74 <t_printf>
/home/user/new-os-test/testsuits-for-oskernel/libc-test/src/functional/clocale_mbfuncs.c:46 (discriminator 2)
	for (i=0; i<0x110000; i++) {
   10714:	0014849b          	addiw	s1,s1,1
   10718:	001107b7          	lui	a5,0x110
   1071c:	f8f490e3          	bne	s1,a5,1069c <clocale_mbfuncs_main+0x1a4>
/home/user/new-os-test/testsuits-for-oskernel/libc-test/src/functional/clocale_mbfuncs.c:54
	}
	if (ni_errors > 50)
   10720:	03200793          	li	a5,50
   10724:	0127da63          	ble	s2,a5,10738 <clocale_mbfuncs_main+0x240>
/home/user/new-os-test/testsuits-for-oskernel/libc-test/src/functional/clocale_mbfuncs.c:55
		t_error("additional %d non-image errors (not printed)\n", ni_errors);
   10728:	00052537          	lui	a0,0x52
   1072c:	00090593          	mv	a1,s2
   10730:	31050513          	addi	a0,a0,784 # 52310 <CSWTCH.18+0x858>
   10734:	041170ef          	jal	ra,27f74 <t_printf>
/home/user/new-os-test/testsuits-for-oskernel/libc-test/src/functional/clocale_mbfuncs.c:57

	map[256] = 0;
   10738:	00001737          	lui	a4,0x1
   1073c:	82070793          	addi	a5,a4,-2016 # 820 <c1+0x80a>
   10740:	002787b3          	add	a5,a5,sp
   10744:	0007a023          	sw	zero,0(a5) # 110000 <buf+0x63618>
/home/user/new-os-test/testsuits-for-oskernel/libc-test/src/functional/clocale_mbfuncs.c:59
	st = (mbstate_t){0};
	if ((rv=wcsrtombs(s, &(const wchar_t *){map+1}, sizeof s, &st)) != 255)
   10748:	c3070793          	addi	a5,a4,-976
/home/user/new-os-test/testsuits-for-oskernel/libc-test/src/functional/clocale_mbfuncs.c:57
	map[256] = 0;
   1074c:	fffff537          	lui	a0,0xfffff
/home/user/new-os-test/testsuits-for-oskernel/libc-test/src/functional/clocale_mbfuncs.c:59
	if ((rv=wcsrtombs(s, &(const wchar_t *){map+1}, sizeof s, &st)) != 255)
   10750:	002787b3          	add	a5,a5,sp
   10754:	00a787b3          	add	a5,a5,a0
   10758:	82870693          	addi	a3,a4,-2008
   1075c:	7f478793          	addi	a5,a5,2036
   10760:	002686b3          	add	a3,a3,sp
   10764:	00f6b023          	sd	a5,0(a3)
   10768:	c3070793          	addi	a5,a4,-976
   1076c:	3e050693          	addi	a3,a0,992 # fffffffffffff3e0 <__BSS_END__+0xffffffffffe511f0>
   10770:	002787b3          	add	a5,a5,sp
   10774:	00d786b3          	add	a3,a5,a3
   10778:	c3070793          	addi	a5,a4,-976
   1077c:	002787b3          	add	a5,a5,sp
   10780:	82870593          	addi	a1,a4,-2008
   10784:	3f050513          	addi	a0,a0,1008
   10788:	002585b3          	add	a1,a1,sp
   1078c:	00a78533          	add	a0,a5,a0
   10790:	40000613          	li	a2,1024
/home/user/new-os-test/testsuits-for-oskernel/libc-test/src/functional/clocale_mbfuncs.c:58
	st = (mbstate_t){0};
   10794:	00013823          	sd	zero,16(sp)
/home/user/new-os-test/testsuits-for-oskernel/libc-test/src/functional/clocale_mbfuncs.c:59
	if ((rv=wcsrtombs(s, &(const wchar_t *){map+1}, sizeof s, &st)) != 255)
   10798:	29d1f0ef          	jal	ra,30234 <wcsrtombs>
   1079c:	0ff00793          	li	a5,255
   107a0:	00050593          	mv	a1,a0
   107a4:	00f50863          	beq	a0,a5,107b4 <clocale_mbfuncs_main+0x2bc>
/home/user/new-os-test/testsuits-for-oskernel/libc-test/src/functional/clocale_mbfuncs.c:60
		t_error("wcsrtombs returned %zd, expected 255\n", rv);
   107a8:	00052537          	lui	a0,0x52
   107ac:	36850513          	addi	a0,a0,872 # 52368 <CSWTCH.18+0x8b0>
   107b0:	7c4170ef          	jal	ra,27f74 <t_printf>
/home/user/new-os-test/testsuits-for-oskernel/libc-test/src/functional/clocale_mbfuncs.c:61
	if ((rv=mbsrtowcs(wtmp, &(const char *){s}, 256, &st)) != 255)
   107b4:	00001737          	lui	a4,0x1
   107b8:	fffff5b7          	lui	a1,0xfffff
   107bc:	c3070693          	addi	a3,a4,-976 # c30 <c1+0xc1a>
   107c0:	3f058793          	addi	a5,a1,1008 # fffffffffffff3f0 <__BSS_END__+0xffffffffffe51200>
   107c4:	002686b3          	add	a3,a3,sp
   107c8:	00f687b3          	add	a5,a3,a5
   107cc:	00f13c23          	sd	a5,24(sp)
   107d0:	c3070793          	addi	a5,a4,-976
   107d4:	3e058693          	addi	a3,a1,992
   107d8:	002787b3          	add	a5,a5,sp
   107dc:	00d786b3          	add	a3,a5,a3
   107e0:	c3070793          	addi	a5,a4,-976
   107e4:	002787b3          	add	a5,a5,sp
   107e8:	82870513          	addi	a0,a4,-2008
   107ec:	3e858593          	addi	a1,a1,1000
   107f0:	00b785b3          	add	a1,a5,a1
   107f4:	10000613          	li	a2,256
   107f8:	00250533          	add	a0,a0,sp
   107fc:	5741f0ef          	jal	ra,2fd70 <mbsrtowcs>
   10800:	0ff00793          	li	a5,255
   10804:	00050593          	mv	a1,a0
   10808:	00f50863          	beq	a0,a5,10818 <clocale_mbfuncs_main+0x320>
/home/user/new-os-test/testsuits-for-oskernel/libc-test/src/functional/clocale_mbfuncs.c:62
		t_error("mbsrtowcs returned %zd, expected 255\n", rv);
   1080c:	00052537          	lui	a0,0x52
   10810:	3b850513          	addi	a0,a0,952 # 523b8 <CSWTCH.18+0x900>
   10814:	760170ef          	jal	ra,27f74 <t_printf>
/home/user/new-os-test/testsuits-for-oskernel/libc-test/src/functional/clocale_mbfuncs.c:63
	if (memcmp(map+1, wtmp, 256*sizeof(*map)))
   10818:	00001737          	lui	a4,0x1
   1081c:	c3070793          	addi	a5,a4,-976 # c30 <c1+0xc1a>
   10820:	fffff537          	lui	a0,0xfffff
   10824:	002787b3          	add	a5,a5,sp
   10828:	00a78533          	add	a0,a5,a0
   1082c:	82870593          	addi	a1,a4,-2008
   10830:	40000613          	li	a2,1024
   10834:	002585b3          	add	a1,a1,sp
   10838:	7f450513          	addi	a0,a0,2036 # fffffffffffff7f4 <__BSS_END__+0xffffffffffe51604>
   1083c:	5092d0ef          	jal	ra,3e544 <memcmp>
   10840:	00050863          	beqz	a0,10850 <clocale_mbfuncs_main+0x358>
/home/user/new-os-test/testsuits-for-oskernel/libc-test/src/functional/clocale_mbfuncs.c:64
		t_error("wcsrtombs/mbsrtowcs round trip failed\n");
   10844:	00052537          	lui	a0,0x52
   10848:	40850513          	addi	a0,a0,1032 # 52408 <CSWTCH.18+0x950>
   1084c:	728170ef          	jal	ra,27f74 <t_printf>
   10850:	08000493          	li	s1,128
/home/user/new-os-test/testsuits-for-oskernel/libc-test/src/functional/clocale_mbfuncs.c:67

	for (i=128; i<256; i++) {
		if (iswalnum(map[i])) t_error("iswalnum returned true for %.4x (%.2x)\n", map[i], i);
   10854:	00052937          	lui	s2,0x52
/home/user/new-os-test/testsuits-for-oskernel/libc-test/src/functional/clocale_mbfuncs.c:68
		if (iswalpha(map[i])) t_error("iswalpha returned true for %.4x (%.2x)\n", map[i], i);
   10858:	000529b7          	lui	s3,0x52
/home/user/new-os-test/testsuits-for-oskernel/libc-test/src/functional/clocale_mbfuncs.c:69
		if (iswblank(map[i])) t_error("iswblank returned true for %.4x (%.2x)\n", map[i], i);
   1085c:	00052a37          	lui	s4,0x52
/home/user/new-os-test/testsuits-for-oskernel/libc-test/src/functional/clocale_mbfuncs.c:70
		if (iswcntrl(map[i])) t_error("iswcntrl returned true for %.4x (%.2x)\n", map[i], i);
   10860:	00052ab7          	lui	s5,0x52
/home/user/new-os-test/testsuits-for-oskernel/libc-test/src/functional/clocale_mbfuncs.c:71
		if (iswdigit(map[i])) t_error("iswdigit returned true for %.4x (%.2x)\n", map[i], i);
   10864:	00052b37          	lui	s6,0x52
/home/user/new-os-test/testsuits-for-oskernel/libc-test/src/functional/clocale_mbfuncs.c:72
		if (iswgraph(map[i])) t_error("iswgraph returned true for %.4x (%.2x)\n", map[i], i);
   10868:	00052bb7          	lui	s7,0x52
/home/user/new-os-test/testsuits-for-oskernel/libc-test/src/functional/clocale_mbfuncs.c:73
		if (iswlower(map[i])) t_error("iswlower returned true for %.4x (%.2x)\n", map[i], i);
   1086c:	00052c37          	lui	s8,0x52
/home/user/new-os-test/testsuits-for-oskernel/libc-test/src/functional/clocale_mbfuncs.c:74
		if (iswprint(map[i])) t_error("iswprint returned true for %.4x (%.2x)\n", map[i], i);
   10870:	00052cb7          	lui	s9,0x52
/home/user/new-os-test/testsuits-for-oskernel/libc-test/src/functional/clocale_mbfuncs.c:67
		if (iswalnum(map[i])) t_error("iswalnum returned true for %.4x (%.2x)\n", map[i], i);
   10874:	20042503          	lw	a0,512(s0)
   10878:	6f01b0ef          	jal	ra,2bf68 <iswalnum>
   1087c:	00050a63          	beqz	a0,10890 <clocale_mbfuncs_main+0x398>
/home/user/new-os-test/testsuits-for-oskernel/libc-test/src/functional/clocale_mbfuncs.c:67 (discriminator 1)
   10880:	20042583          	lw	a1,512(s0)
   10884:	00048613          	mv	a2,s1
   10888:	45890513          	addi	a0,s2,1112 # 52458 <CSWTCH.18+0x9a0>
   1088c:	6e8170ef          	jal	ra,27f74 <t_printf>
/home/user/new-os-test/testsuits-for-oskernel/libc-test/src/functional/clocale_mbfuncs.c:68
		if (iswalpha(map[i])) t_error("iswalpha returned true for %.4x (%.2x)\n", map[i], i);
   10890:	20042503          	lw	a0,512(s0)
   10894:	7081b0ef          	jal	ra,2bf9c <iswalpha>
   10898:	00050a63          	beqz	a0,108ac <clocale_mbfuncs_main+0x3b4>
/home/user/new-os-test/testsuits-for-oskernel/libc-test/src/functional/clocale_mbfuncs.c:68 (discriminator 1)
   1089c:	20042583          	lw	a1,512(s0)
   108a0:	00048613          	mv	a2,s1
   108a4:	4a898513          	addi	a0,s3,1192 # 524a8 <CSWTCH.18+0x9f0>
   108a8:	6cc170ef          	jal	ra,27f74 <t_printf>
/home/user/new-os-test/testsuits-for-oskernel/libc-test/src/functional/clocale_mbfuncs.c:69
		if (iswblank(map[i])) t_error("iswblank returned true for %.4x (%.2x)\n", map[i], i);
   108ac:	20042503          	lw	a0,512(s0)
   108b0:	7541b0ef          	jal	ra,2c004 <iswblank>
   108b4:	00050a63          	beqz	a0,108c8 <clocale_mbfuncs_main+0x3d0>
/home/user/new-os-test/testsuits-for-oskernel/libc-test/src/functional/clocale_mbfuncs.c:69 (discriminator 1)
   108b8:	20042583          	lw	a1,512(s0)
   108bc:	00048613          	mv	a2,s1
   108c0:	4f8a0513          	addi	a0,s4,1272 # 524f8 <CSWTCH.18+0xa40>
   108c4:	6b0170ef          	jal	ra,27f74 <t_printf>
/home/user/new-os-test/testsuits-for-oskernel/libc-test/src/functional/clocale_mbfuncs.c:70
		if (iswcntrl(map[i])) t_error("iswcntrl returned true for %.4x (%.2x)\n", map[i], i);
   108c8:	20042503          	lw	a0,512(s0)
   108cc:	7401b0ef          	jal	ra,2c00c <iswcntrl>
   108d0:	00050a63          	beqz	a0,108e4 <clocale_mbfuncs_main+0x3ec>
/home/user/new-os-test/testsuits-for-oskernel/libc-test/src/functional/clocale_mbfuncs.c:70 (discriminator 1)
   108d4:	20042583          	lw	a1,512(s0)
   108d8:	00048613          	mv	a2,s1
   108dc:	548a8513          	addi	a0,s5,1352 # 52548 <CSWTCH.18+0xa90>
   108e0:	694170ef          	jal	ra,27f74 <t_printf>
/home/user/new-os-test/testsuits-for-oskernel/libc-test/src/functional/clocale_mbfuncs.c:71
		if (iswdigit(map[i])) t_error("iswdigit returned true for %.4x (%.2x)\n", map[i], i);
   108e4:	20042583          	lw	a1,512(s0)
   108e8:	00900793          	li	a5,9
   108ec:	fd05871b          	addiw	a4,a1,-48
   108f0:	00e7e863          	bltu	a5,a4,10900 <clocale_mbfuncs_main+0x408>
/home/user/new-os-test/testsuits-for-oskernel/libc-test/src/functional/clocale_mbfuncs.c:71 (discriminator 1)
   108f4:	00048613          	mv	a2,s1
   108f8:	598b0513          	addi	a0,s6,1432 # 52598 <CSWTCH.18+0xae0>
   108fc:	678170ef          	jal	ra,27f74 <t_printf>
/home/user/new-os-test/testsuits-for-oskernel/libc-test/src/functional/clocale_mbfuncs.c:72
		if (iswgraph(map[i])) t_error("iswgraph returned true for %.4x (%.2x)\n", map[i], i);
   10900:	20042503          	lw	a0,512(s0)
   10904:	7541b0ef          	jal	ra,2c058 <iswgraph>
   10908:	00050a63          	beqz	a0,1091c <clocale_mbfuncs_main+0x424>
/home/user/new-os-test/testsuits-for-oskernel/libc-test/src/functional/clocale_mbfuncs.c:72 (discriminator 1)
   1090c:	20042583          	lw	a1,512(s0)
   10910:	00048613          	mv	a2,s1
   10914:	5e8b8513          	addi	a0,s7,1512 # 525e8 <CSWTCH.18+0xb30>
   10918:	65c170ef          	jal	ra,27f74 <t_printf>
/home/user/new-os-test/testsuits-for-oskernel/libc-test/src/functional/clocale_mbfuncs.c:73
		if (iswlower(map[i])) t_error("iswlower returned true for %.4x (%.2x)\n", map[i], i);
   1091c:	20042503          	lw	a0,512(s0)
   10920:	7781b0ef          	jal	ra,2c098 <iswlower>
   10924:	00050a63          	beqz	a0,10938 <clocale_mbfuncs_main+0x440>
/home/user/new-os-test/testsuits-for-oskernel/libc-test/src/functional/clocale_mbfuncs.c:73 (discriminator 1)
   10928:	20042583          	lw	a1,512(s0)
   1092c:	00048613          	mv	a2,s1
   10930:	638c0513          	addi	a0,s8,1592 # 52638 <CSWTCH.18+0xb80>
   10934:	640170ef          	jal	ra,27f74 <t_printf>
/home/user/new-os-test/testsuits-for-oskernel/libc-test/src/functional/clocale_mbfuncs.c:74
		if (iswprint(map[i])) t_error("iswprint returned true for %.4x (%.2x)\n", map[i], i);
   10938:	20042503          	lw	a0,512(s0)
   1093c:	7901b0ef          	jal	ra,2c0cc <iswprint>
   10940:	00050a63          	beqz	a0,10954 <clocale_mbfuncs_main+0x45c>
/home/user/new-os-test/testsuits-for-oskernel/libc-test/src/functional/clocale_mbfuncs.c:74 (discriminator 1)
   10944:	20042583          	lw	a1,512(s0)
   10948:	00048613          	mv	a2,s1
   1094c:	688c8513          	addi	a0,s9,1672 # 52688 <CSWTCH.18+0xbd0>
   10950:	624170ef          	jal	ra,27f74 <t_printf>
/home/user/new-os-test/testsuits-for-oskernel/libc-test/src/functional/clocale_mbfuncs.c:75
		if (iswpunct(map[i])) t_error("iswpunct returned true for %.4x (%.2x)\n", map[i], i);
   10954:	20042503          	lw	a0,512(s0)
   10958:	0051b0ef          	jal	ra,2c15c <iswpunct>
   1095c:	00050c63          	beqz	a0,10974 <clocale_mbfuncs_main+0x47c>
/home/user/new-os-test/testsuits-for-oskernel/libc-test/src/functional/clocale_mbfuncs.c:75 (discriminator 1)
   10960:	20042583          	lw	a1,512(s0)
   10964:	00052537          	lui	a0,0x52
   10968:	00048613          	mv	a2,s1
   1096c:	6d850513          	addi	a0,a0,1752 # 526d8 <CSWTCH.18+0xc20>
   10970:	604170ef          	jal	ra,27f74 <t_printf>
/home/user/new-os-test/testsuits-for-oskernel/libc-test/src/functional/clocale_mbfuncs.c:76
		if (iswspace(map[i])) t_error("iswspace returned true for %.4x (%.2x)\n", map[i], i);
   10974:	20042503          	lw	a0,512(s0)
   10978:	03d1b0ef          	jal	ra,2c1b4 <iswspace>
   1097c:	00050c63          	beqz	a0,10994 <clocale_mbfuncs_main+0x49c>
/home/user/new-os-test/testsuits-for-oskernel/libc-test/src/functional/clocale_mbfuncs.c:76 (discriminator 1)
   10980:	20042583          	lw	a1,512(s0)
   10984:	00052537          	lui	a0,0x52
   10988:	00048613          	mv	a2,s1
   1098c:	72850513          	addi	a0,a0,1832 # 52728 <CSWTCH.18+0xc70>
   10990:	5e4170ef          	jal	ra,27f74 <t_printf>
/home/user/new-os-test/testsuits-for-oskernel/libc-test/src/functional/clocale_mbfuncs.c:77
		if (iswupper(map[i])) t_error("iswupper returned true for %.4x (%.2x)\n", map[i], i);
   10994:	20042503          	lw	a0,512(s0)
   10998:	0551b0ef          	jal	ra,2c1ec <iswupper>
   1099c:	00050c63          	beqz	a0,109b4 <clocale_mbfuncs_main+0x4bc>
/home/user/new-os-test/testsuits-for-oskernel/libc-test/src/functional/clocale_mbfuncs.c:77 (discriminator 1)
   109a0:	20042583          	lw	a1,512(s0)
   109a4:	00052537          	lui	a0,0x52
   109a8:	00048613          	mv	a2,s1
   109ac:	77850513          	addi	a0,a0,1912 # 52778 <CSWTCH.18+0xcc0>
   109b0:	5c4170ef          	jal	ra,27f74 <t_printf>
/home/user/new-os-test/testsuits-for-oskernel/libc-test/src/functional/clocale_mbfuncs.c:78
		if (iswxdigit(map[i])) t_error("iswxdigit returned true for %.4x (%.2x)\n", map[i], i);
   109b4:	20042503          	lw	a0,512(s0)
   109b8:	0691b0ef          	jal	ra,2c220 <iswxdigit>
   109bc:	00050c63          	beqz	a0,109d4 <clocale_mbfuncs_main+0x4dc>
/home/user/new-os-test/testsuits-for-oskernel/libc-test/src/functional/clocale_mbfuncs.c:78 (discriminator 1)
   109c0:	20042583          	lw	a1,512(s0)
   109c4:	00052537          	lui	a0,0x52
   109c8:	00048613          	mv	a2,s1
   109cc:	7c850513          	addi	a0,a0,1992 # 527c8 <CSWTCH.18+0xd10>
   109d0:	5a4170ef          	jal	ra,27f74 <t_printf>
/home/user/new-os-test/testsuits-for-oskernel/libc-test/src/functional/clocale_mbfuncs.c:66 (discriminator 2)
	for (i=128; i<256; i++) {
   109d4:	0014849b          	addiw	s1,s1,1
   109d8:	10000793          	li	a5,256
   109dc:	00440413          	addi	s0,s0,4
   109e0:	e8f49ae3          	bne	s1,a5,10874 <clocale_mbfuncs_main+0x37c>
/home/user/new-os-test/testsuits-for-oskernel/libc-test/src/functional/clocale_mbfuncs.c:81
	}

	return t_status;
   109e4:	bb01a503          	lw	a0,-1104(gp) # a8a38 <_edata>
/home/user/new-os-test/testsuits-for-oskernel/libc-test/src/functional/clocale_mbfuncs.c:82
}
   109e8:	4a010113          	addi	sp,sp,1184
   109ec:	7e813083          	ld	ra,2024(sp)
   109f0:	7e013403          	ld	s0,2016(sp)
   109f4:	7d813483          	ld	s1,2008(sp)
   109f8:	7d013903          	ld	s2,2000(sp)
   109fc:	7c813983          	ld	s3,1992(sp)
   10a00:	7c013a03          	ld	s4,1984(sp)
   10a04:	7b813a83          	ld	s5,1976(sp)
   10a08:	7b013b03          	ld	s6,1968(sp)
   10a0c:	7a813b83          	ld	s7,1960(sp)
   10a10:	7a013c03          	ld	s8,1952(sp)
   10a14:	79813c83          	ld	s9,1944(sp)
   10a18:	0005051b          	sext.w	a0,a0
   10a1c:	7f010113          	addi	sp,sp,2032
   10a20:	00008067          	ret
/home/user/new-os-test/testsuits-for-oskernel/libc-test/src/functional/clocale_mbfuncs.c:34
			if (map[j]==map[i])
   10a24:	0009a783          	lw	a5,0(s3)
   10a28:	000b2683          	lw	a3,0(s6)
   10a2c:	00f69a63          	bne	a3,a5,10a40 <clocale_mbfuncs_main+0x548>
/home/user/new-os-test/testsuits-for-oskernel/libc-test/src/functional/clocale_mbfuncs.c:35
				t_error("bytes %.2x and %.2x map to same wchar_t %.4x\n", j, i, (unsigned)map[i]);
   10a30:	00048613          	mv	a2,s1
   10a34:	000a0593          	mv	a1,s4
   10a38:	1a8c0513          	addi	a0,s8,424
   10a3c:	538170ef          	jal	ra,27f74 <t_printf>
/home/user/new-os-test/testsuits-for-oskernel/libc-test/src/functional/clocale_mbfuncs.c:33 (discriminator 2)
		for (j=0; j<i; j++) {
   10a40:	001a0a1b          	addiw	s4,s4,1
   10a44:	004b0b13          	addi	s6,s6,4
/home/user/new-os-test/testsuits-for-oskernel/libc-test/src/functional/clocale_mbfuncs.c:33 (discriminator 1)
   10a48:	fc9a1ee3          	bne	s4,s1,10a24 <clocale_mbfuncs_main+0x52c>
   10a4c:	bb5ff06f          	j	10600 <clocale_mbfuncs_main+0x108>
   10a50:	00040b13          	mv	s6,s0
/home/user/new-os-test/testsuits-for-oskernel/libc-test/src/functional/clocale_mbfuncs.c:33
   10a54:	00000a13          	li	s4,0
   10a58:	ff1ff06f          	j	10a48 <clocale_mbfuncs_main+0x550>

0000000000010a5c <clock_gettime_main>:
/home/user/new-os-test/testsuits-for-oskernel/libc-test/src/functional/clock_gettime.c:10

#define TEST(c, ...) \
	( (c) || (t_error(#c " failed: " __VA_ARGS__),0) )

int main()
{
   10a5c:	fe010113          	addi	sp,sp,-32
/home/user/new-os-test/testsuits-for-oskernel/libc-test/src/functional/clock_gettime.c:12
	struct timespec ts;
	TEST(clock_gettime(CLOCK_REALTIME, &ts) == 0 && errno == 0, "%s\n", strerror(errno));
   10a60:	00010593          	mv	a1,sp
   10a64:	00000513          	li	a0,0
/home/user/new-os-test/testsuits-for-oskernel/libc-test/src/functional/clock_gettime.c:10
{
   10a68:	00813823          	sd	s0,16(sp)
   10a6c:	00113c23          	sd	ra,24(sp)
/home/user/new-os-test/testsuits-for-oskernel/libc-test/src/functional/clock_gettime.c:12
	TEST(clock_gettime(CLOCK_REALTIME, &ts) == 0 && errno == 0, "%s\n", strerror(errno));
   10a70:	531330ef          	jal	ra,447a0 <__clock_gettime>
   10a74:	00050413          	mv	s0,a0
   10a78:	1081c0ef          	jal	ra,2cb80 <__errno_location>
   10a7c:	00041663          	bnez	s0,10a88 <clock_gettime_main+0x2c>
/home/user/new-os-test/testsuits-for-oskernel/libc-test/src/functional/clock_gettime.c:12 (discriminator 1)
   10a80:	00052783          	lw	a5,0(a0)
   10a84:	00078e63          	beqz	a5,10aa0 <clock_gettime_main+0x44>
/home/user/new-os-test/testsuits-for-oskernel/libc-test/src/functional/clock_gettime.c:12 (discriminator 4)
   10a88:	00052503          	lw	a0,0(a0)
   10a8c:	14c1c0ef          	jal	ra,2cbd8 <strerror>
   10a90:	00050593          	mv	a1,a0
   10a94:	00053537          	lui	a0,0x53
   10a98:	81850513          	addi	a0,a0,-2024 # 52818 <CSWTCH.18+0xd60>
   10a9c:	4d8170ef          	jal	ra,27f74 <t_printf>
/home/user/new-os-test/testsuits-for-oskernel/libc-test/src/functional/clock_gettime.c:13
	return t_status;
   10aa0:	bb01a503          	lw	a0,-1104(gp) # a8a38 <_edata>
/home/user/new-os-test/testsuits-for-oskernel/libc-test/src/functional/clock_gettime.c:14
}
   10aa4:	01813083          	ld	ra,24(sp)
   10aa8:	01013403          	ld	s0,16(sp)
   10aac:	0005051b          	sext.w	a0,a0
   10ab0:	02010113          	addi	sp,sp,32
   10ab4:	00008067          	ret

0000000000010ab8 <crypt_main>:
/home/user/new-os-test/testsuits-for-oskernel/libc-test/src/functional/crypt.c:12
#define T(h,s,k) p = crypt(k,s); \
 if (!p) p ="*"; \
 if (strcmp(p,h)!=0) t_error("crypt(%s, \"%s\") failed: got \"%s\" want \"%s\"\n", #k, s, p, h);

int main()
{
   10ab8:	fb010113          	addi	sp,sp,-80
   10abc:	03213823          	sd	s2,48(sp)
   10ac0:	01613823          	sd	s6,16(sp)
/home/user/new-os-test/testsuits-for-oskernel/libc-test/src/functional/crypt.c:15

/* md5 */
T("$1$abcd0123$9Qcg8DyviekV3tDGMZynJ1", "$1$abcd0123$", "Xy01@#\x01\x02\x80\x7f\xff\r\n\x81\t !")
   10ac4:	00053937          	lui	s2,0x53
   10ac8:	00053b37          	lui	s6,0x53
   10acc:	88090593          	addi	a1,s2,-1920 # 52880 <CSWTCH.18+0xdc8>
   10ad0:	890b0513          	addi	a0,s6,-1904 # 52890 <CSWTCH.18+0xdd8>
/home/user/new-os-test/testsuits-for-oskernel/libc-test/src/functional/crypt.c:12
{
   10ad4:	04813023          	sd	s0,64(sp)
   10ad8:	02913c23          	sd	s1,56(sp)
   10adc:	04113423          	sd	ra,72(sp)
   10ae0:	03313423          	sd	s3,40(sp)
   10ae4:	03413023          	sd	s4,32(sp)
   10ae8:	01513c23          	sd	s5,24(sp)
   10aec:	01713423          	sd	s7,8(sp)
/home/user/new-os-test/testsuits-for-oskernel/libc-test/src/functional/crypt.c:15
T("$1$abcd0123$9Qcg8DyviekV3tDGMZynJ1", "$1$abcd0123$", "Xy01@#\x01\x02\x80\x7f\xff\r\n\x81\t !")
   10af0:	7a1190ef          	jal	ra,2aa90 <crypt>
   10af4:	000534b7          	lui	s1,0x53
   10af8:	1c0500e3          	beqz	a0,114b8 <crypt_main+0xa00>
   10afc:	baa1bc23          	sd	a0,-1096(gp) # a8a40 <p>
/home/user/new-os-test/testsuits-for-oskernel/libc-test/src/functional/crypt.c:15 (discriminator 3)
   10b00:	bb81b503          	ld	a0,-1096(gp) # a8a40 <p>
   10b04:	000539b7          	lui	s3,0x53
   10b08:	8b098593          	addi	a1,s3,-1872 # 528b0 <CSWTCH.18+0xdf8>
   10b0c:	6f02e0ef          	jal	ra,3f1fc <strcmp>
   10b10:	02050263          	beqz	a0,10b34 <crypt_main+0x7c>
/home/user/new-os-test/testsuits-for-oskernel/libc-test/src/functional/crypt.c:15 (discriminator 4)
   10b14:	bb81b683          	ld	a3,-1096(gp) # a8a40 <p>
   10b18:	000535b7          	lui	a1,0x53
   10b1c:	00053537          	lui	a0,0x53
   10b20:	8b098713          	addi	a4,s3,-1872
   10b24:	88090613          	addi	a2,s2,-1920
   10b28:	8d858593          	addi	a1,a1,-1832 # 528d8 <CSWTCH.18+0xe20>
   10b2c:	90850513          	addi	a0,a0,-1784 # 52908 <CSWTCH.18+0xe50>
   10b30:	444170ef          	jal	ra,27f74 <t_printf>
/home/user/new-os-test/testsuits-for-oskernel/libc-test/src/functional/crypt.c:16
T("$1$$qRPK7m23GJusamGpoGLby/", "$1$$", "")
   10b34:	000539b7          	lui	s3,0x53
   10b38:	0006f937          	lui	s2,0x6f
   10b3c:	95098593          	addi	a1,s3,-1712 # 52950 <CSWTCH.18+0xe98>
   10b40:	cc890513          	addi	a0,s2,-824 # 6ecc8 <t+0x1758>
   10b44:	74d190ef          	jal	ra,2aa90 <crypt>
   10b48:	16050ee3          	beqz	a0,114c4 <crypt_main+0xa0c>
   10b4c:	baa1bc23          	sd	a0,-1096(gp) # a8a40 <p>
/home/user/new-os-test/testsuits-for-oskernel/libc-test/src/functional/crypt.c:16 (discriminator 3)
   10b50:	bb81b503          	ld	a0,-1096(gp) # a8a40 <p>
   10b54:	00053a37          	lui	s4,0x53
   10b58:	958a0593          	addi	a1,s4,-1704 # 52958 <CSWTCH.18+0xea0>
   10b5c:	6a02e0ef          	jal	ra,3f1fc <strcmp>
   10b60:	02050263          	beqz	a0,10b84 <crypt_main+0xcc>
/home/user/new-os-test/testsuits-for-oskernel/libc-test/src/functional/crypt.c:16 (discriminator 4)
   10b64:	bb81b683          	ld	a3,-1096(gp) # a8a40 <p>
   10b68:	000535b7          	lui	a1,0x53
   10b6c:	00053537          	lui	a0,0x53
   10b70:	958a0713          	addi	a4,s4,-1704
   10b74:	95098613          	addi	a2,s3,-1712
   10b78:	97858593          	addi	a1,a1,-1672 # 52978 <CSWTCH.18+0xec0>
   10b7c:	98050513          	addi	a0,a0,-1664 # 52980 <CSWTCH.18+0xec8>
   10b80:	3f4170ef          	jal	ra,27f74 <t_printf>
/home/user/new-os-test/testsuits-for-oskernel/libc-test/src/functional/crypt.c:17
T("$1$salt$UsdFqFVB.FsuinRDK5eE..", "$1$salt$", "")
   10b84:	000539b7          	lui	s3,0x53
   10b88:	9c898593          	addi	a1,s3,-1592 # 529c8 <CSWTCH.18+0xf10>
   10b8c:	cc890513          	addi	a0,s2,-824
   10b90:	701190ef          	jal	ra,2aa90 <crypt>
   10b94:	12050ee3          	beqz	a0,114d0 <crypt_main+0xa18>
   10b98:	baa1bc23          	sd	a0,-1096(gp) # a8a40 <p>
/home/user/new-os-test/testsuits-for-oskernel/libc-test/src/functional/crypt.c:17 (discriminator 3)
   10b9c:	bb81b503          	ld	a0,-1096(gp) # a8a40 <p>
   10ba0:	00053a37          	lui	s4,0x53
   10ba4:	9d8a0593          	addi	a1,s4,-1576 # 529d8 <CSWTCH.18+0xf20>
   10ba8:	6542e0ef          	jal	ra,3f1fc <strcmp>
   10bac:	02050263          	beqz	a0,10bd0 <crypt_main+0x118>
/home/user/new-os-test/testsuits-for-oskernel/libc-test/src/functional/crypt.c:17 (discriminator 4)
   10bb0:	bb81b683          	ld	a3,-1096(gp) # a8a40 <p>
   10bb4:	000535b7          	lui	a1,0x53
   10bb8:	00053537          	lui	a0,0x53
   10bbc:	9d8a0713          	addi	a4,s4,-1576
   10bc0:	9c898613          	addi	a2,s3,-1592
   10bc4:	97858593          	addi	a1,a1,-1672 # 52978 <CSWTCH.18+0xec0>
   10bc8:	9f850513          	addi	a0,a0,-1544 # 529f8 <CSWTCH.18+0xf40>
   10bcc:	3a8170ef          	jal	ra,27f74 <t_printf>
/home/user/new-os-test/testsuits-for-oskernel/libc-test/src/functional/crypt.c:18
T("$1$salt1234$.pylIeU8A8nhxsVrZNOP..", "$1$salt1234$", "Aa@\xaa 0123456789")
   10bd0:	00053a37          	lui	s4,0x53
   10bd4:	000539b7          	lui	s3,0x53
   10bd8:	a40a0593          	addi	a1,s4,-1472 # 52a40 <CSWTCH.18+0xf88>
   10bdc:	a5098513          	addi	a0,s3,-1456 # 52a50 <CSWTCH.18+0xf98>
   10be0:	6b1190ef          	jal	ra,2aa90 <crypt>
   10be4:	0e050ce3          	beqz	a0,114dc <crypt_main+0xa24>
   10be8:	baa1bc23          	sd	a0,-1096(gp) # a8a40 <p>
/home/user/new-os-test/testsuits-for-oskernel/libc-test/src/functional/crypt.c:18 (discriminator 3)
   10bec:	bb81b503          	ld	a0,-1096(gp) # a8a40 <p>
   10bf0:	00053ab7          	lui	s5,0x53
   10bf4:	a60a8593          	addi	a1,s5,-1440 # 52a60 <CSWTCH.18+0xfa8>
   10bf8:	6042e0ef          	jal	ra,3f1fc <strcmp>
   10bfc:	02050263          	beqz	a0,10c20 <crypt_main+0x168>
/home/user/new-os-test/testsuits-for-oskernel/libc-test/src/functional/crypt.c:18 (discriminator 4)
   10c00:	bb81b683          	ld	a3,-1096(gp) # a8a40 <p>
   10c04:	000535b7          	lui	a1,0x53
   10c08:	00053537          	lui	a0,0x53
   10c0c:	a60a8713          	addi	a4,s5,-1440
   10c10:	a40a0613          	addi	a2,s4,-1472
   10c14:	a8858593          	addi	a1,a1,-1400 # 52a88 <CSWTCH.18+0xfd0>
   10c18:	aa050513          	addi	a0,a0,-1376 # 52aa0 <CSWTCH.18+0xfe8>
   10c1c:	358170ef          	jal	ra,27f74 <t_printf>
/home/user/new-os-test/testsuits-for-oskernel/libc-test/src/functional/crypt.c:19
T("$1$aaaaaaaa$zqksdEYCs/p2VrrMTPU0x0", "$1$aaaaaaaaaaaaaaaaaaaa$", "aaaaaaaaaaaaaaaaaaaa")
   10c20:	00053a37          	lui	s4,0x53
   10c24:	00053537          	lui	a0,0x53
   10c28:	ae8a0593          	addi	a1,s4,-1304 # 52ae8 <CSWTCH.18+0x1030>
   10c2c:	b0850513          	addi	a0,a0,-1272 # 52b08 <CSWTCH.18+0x1050>
   10c30:	661190ef          	jal	ra,2aa90 <crypt>
   10c34:	0a050ae3          	beqz	a0,114e8 <crypt_main+0xa30>
   10c38:	baa1bc23          	sd	a0,-1096(gp) # a8a40 <p>
/home/user/new-os-test/testsuits-for-oskernel/libc-test/src/functional/crypt.c:19 (discriminator 3)
   10c3c:	bb81b503          	ld	a0,-1096(gp) # a8a40 <p>
   10c40:	00053ab7          	lui	s5,0x53
   10c44:	b20a8593          	addi	a1,s5,-1248 # 52b20 <CSWTCH.18+0x1068>
   10c48:	5b42e0ef          	jal	ra,3f1fc <strcmp>
   10c4c:	02050263          	beqz	a0,10c70 <crypt_main+0x1b8>
/home/user/new-os-test/testsuits-for-oskernel/libc-test/src/functional/crypt.c:19 (discriminator 4)
   10c50:	bb81b683          	ld	a3,-1096(gp) # a8a40 <p>
   10c54:	000535b7          	lui	a1,0x53
   10c58:	00053537          	lui	a0,0x53
   10c5c:	b20a8713          	addi	a4,s5,-1248
   10c60:	ae8a0613          	addi	a2,s4,-1304
   10c64:	b4858593          	addi	a1,a1,-1208 # 52b48 <CSWTCH.18+0x1090>
   10c68:	b6050513          	addi	a0,a0,-1184 # 52b60 <CSWTCH.18+0x10a8>
   10c6c:	308170ef          	jal	ra,27f74 <t_printf>
/home/user/new-os-test/testsuits-for-oskernel/libc-test/src/functional/crypt.c:21
/* blowfish */
T("*",
   10c70:	00053a37          	lui	s4,0x53
   10c74:	ba8a0593          	addi	a1,s4,-1112 # 52ba8 <CSWTCH.18+0x10f0>
   10c78:	cc890513          	addi	a0,s2,-824
   10c7c:	615190ef          	jal	ra,2aa90 <crypt>
   10c80:	06050ae3          	beqz	a0,114f4 <crypt_main+0xa3c>
   10c84:	baa1bc23          	sd	a0,-1096(gp) # a8a40 <p>
/home/user/new-os-test/testsuits-for-oskernel/libc-test/src/functional/crypt.c:21 (discriminator 3)
   10c88:	bb81b503          	ld	a0,-1096(gp) # a8a40 <p>
   10c8c:	8a848593          	addi	a1,s1,-1880 # 528a8 <CSWTCH.18+0xdf0>
   10c90:	56c2e0ef          	jal	ra,3f1fc <strcmp>
   10c94:	02050263          	beqz	a0,10cb8 <crypt_main+0x200>
/home/user/new-os-test/testsuits-for-oskernel/libc-test/src/functional/crypt.c:21 (discriminator 4)
   10c98:	bb81b683          	ld	a3,-1096(gp) # a8a40 <p>
   10c9c:	000535b7          	lui	a1,0x53
   10ca0:	00053537          	lui	a0,0x53
   10ca4:	8a848713          	addi	a4,s1,-1880
   10ca8:	ba8a0613          	addi	a2,s4,-1112
   10cac:	97858593          	addi	a1,a1,-1672 # 52978 <CSWTCH.18+0xec0>
   10cb0:	bc850513          	addi	a0,a0,-1080 # 52bc8 <CSWTCH.18+0x1110>
   10cb4:	2c0170ef          	jal	ra,27f74 <t_printf>
/home/user/new-os-test/testsuits-for-oskernel/libc-test/src/functional/crypt.c:23
	"$2a$00$0123456789012345678901", "")
T("*",
   10cb8:	00053a37          	lui	s4,0x53
   10cbc:	c10a0593          	addi	a1,s4,-1008 # 52c10 <CSWTCH.18+0x1158>
   10cc0:	cc890513          	addi	a0,s2,-824
   10cc4:	5cd190ef          	jal	ra,2aa90 <crypt>
   10cc8:	02050ce3          	beqz	a0,11500 <crypt_main+0xa48>
   10ccc:	baa1bc23          	sd	a0,-1096(gp) # a8a40 <p>
/home/user/new-os-test/testsuits-for-oskernel/libc-test/src/functional/crypt.c:23 (discriminator 3)
   10cd0:	bb81b503          	ld	a0,-1096(gp) # a8a40 <p>
   10cd4:	8a848593          	addi	a1,s1,-1880
   10cd8:	5242e0ef          	jal	ra,3f1fc <strcmp>
   10cdc:	02050263          	beqz	a0,10d00 <crypt_main+0x248>
/home/user/new-os-test/testsuits-for-oskernel/libc-test/src/functional/crypt.c:23 (discriminator 4)
   10ce0:	bb81b683          	ld	a3,-1096(gp) # a8a40 <p>
   10ce4:	000535b7          	lui	a1,0x53
   10ce8:	00053537          	lui	a0,0x53
   10cec:	8a848713          	addi	a4,s1,-1880
   10cf0:	c10a0613          	addi	a2,s4,-1008
   10cf4:	97858593          	addi	a1,a1,-1672 # 52978 <CSWTCH.18+0xec0>
   10cf8:	c3050513          	addi	a0,a0,-976 # 52c30 <CSWTCH.18+0x1178>
   10cfc:	278170ef          	jal	ra,27f74 <t_printf>
/home/user/new-os-test/testsuits-for-oskernel/libc-test/src/functional/crypt.c:25
	"$2a$08$01234567890123456789", "")
T("$2a$04$012345678901234567890u8auMTJmy9uQv1pCMPSGmRjXec5nzCf6",
   10d00:	00053a37          	lui	s4,0x53
   10d04:	c78a0593          	addi	a1,s4,-904 # 52c78 <CSWTCH.18+0x11c0>
   10d08:	cc890513          	addi	a0,s2,-824
   10d0c:	585190ef          	jal	ra,2aa90 <crypt>
   10d10:	7e050e63          	beqz	a0,1150c <crypt_main+0xa54>
   10d14:	baa1bc23          	sd	a0,-1096(gp) # a8a40 <p>
/home/user/new-os-test/testsuits-for-oskernel/libc-test/src/functional/crypt.c:25 (discriminator 3)
   10d18:	bb81b503          	ld	a0,-1096(gp) # a8a40 <p>
   10d1c:	00053ab7          	lui	s5,0x53
   10d20:	c98a8593          	addi	a1,s5,-872 # 52c98 <CSWTCH.18+0x11e0>
   10d24:	4d82e0ef          	jal	ra,3f1fc <strcmp>
   10d28:	02050263          	beqz	a0,10d4c <crypt_main+0x294>
/home/user/new-os-test/testsuits-for-oskernel/libc-test/src/functional/crypt.c:25 (discriminator 4)
   10d2c:	bb81b683          	ld	a3,-1096(gp) # a8a40 <p>
   10d30:	000535b7          	lui	a1,0x53
   10d34:	00053537          	lui	a0,0x53
   10d38:	c98a8713          	addi	a4,s5,-872
   10d3c:	c78a0613          	addi	a2,s4,-904
   10d40:	97858593          	addi	a1,a1,-1672 # 52978 <CSWTCH.18+0xec0>
   10d44:	cd850513          	addi	a0,a0,-808 # 52cd8 <CSWTCH.18+0x1220>
   10d48:	22c170ef          	jal	ra,27f74 <t_printf>
/home/user/new-os-test/testsuits-for-oskernel/libc-test/src/functional/crypt.c:27
	"$2a$04$0123456789012345678901", "")
T("$2a$04$abcdefghijklmnopqrstuuEgxSMhZgdHqm5w1Iw6ZfXSn4If4J406",
   10d4c:	00053a37          	lui	s4,0x53
   10d50:	00053ab7          	lui	s5,0x53
   10d54:	d20a0593          	addi	a1,s4,-736 # 52d20 <CSWTCH.18+0x1268>
   10d58:	d40a8513          	addi	a0,s5,-704 # 52d40 <CSWTCH.18+0x1288>
   10d5c:	535190ef          	jal	ra,2aa90 <crypt>
   10d60:	7a050c63          	beqz	a0,11518 <crypt_main+0xa60>
   10d64:	baa1bc23          	sd	a0,-1096(gp) # a8a40 <p>
/home/user/new-os-test/testsuits-for-oskernel/libc-test/src/functional/crypt.c:27 (discriminator 3)
   10d68:	bb81b503          	ld	a0,-1096(gp) # a8a40 <p>
   10d6c:	00053bb7          	lui	s7,0x53
   10d70:	d48b8593          	addi	a1,s7,-696 # 52d48 <CSWTCH.18+0x1290>
   10d74:	4882e0ef          	jal	ra,3f1fc <strcmp>
   10d78:	02050263          	beqz	a0,10d9c <crypt_main+0x2e4>
/home/user/new-os-test/testsuits-for-oskernel/libc-test/src/functional/crypt.c:27 (discriminator 4)
   10d7c:	bb81b683          	ld	a3,-1096(gp) # a8a40 <p>
   10d80:	000535b7          	lui	a1,0x53
   10d84:	00053537          	lui	a0,0x53
   10d88:	d48b8713          	addi	a4,s7,-696
   10d8c:	d20a0613          	addi	a2,s4,-736
   10d90:	d8858593          	addi	a1,a1,-632 # 52d88 <CSWTCH.18+0x12d0>
   10d94:	da850513          	addi	a0,a0,-600 # 52da8 <CSWTCH.18+0x12f0>
   10d98:	1dc170ef          	jal	ra,27f74 <t_printf>
/home/user/new-os-test/testsuits-for-oskernel/libc-test/src/functional/crypt.c:29
	"$2a$04$abcdefghijklmnopqrstuv", "\xff\xff\xff\xa3\x33\x01\x40")
T("$2a$04$abcdefghijklmnopqrstuu8J3SjO9LQpndv9O3HW/e0PB1xKk.PJu",
   10d9c:	d20a0593          	addi	a1,s4,-736
   10da0:	a5098513          	addi	a0,s3,-1456
   10da4:	4ed190ef          	jal	ra,2aa90 <crypt>
   10da8:	76050e63          	beqz	a0,11524 <crypt_main+0xa6c>
   10dac:	baa1bc23          	sd	a0,-1096(gp) # a8a40 <p>
/home/user/new-os-test/testsuits-for-oskernel/libc-test/src/functional/crypt.c:29 (discriminator 3)
   10db0:	bb81b503          	ld	a0,-1096(gp) # a8a40 <p>
   10db4:	00053bb7          	lui	s7,0x53
   10db8:	df0b8593          	addi	a1,s7,-528 # 52df0 <CSWTCH.18+0x1338>
   10dbc:	4402e0ef          	jal	ra,3f1fc <strcmp>
   10dc0:	02050263          	beqz	a0,10de4 <crypt_main+0x32c>
/home/user/new-os-test/testsuits-for-oskernel/libc-test/src/functional/crypt.c:29 (discriminator 4)
   10dc4:	bb81b683          	ld	a3,-1096(gp) # a8a40 <p>
   10dc8:	000535b7          	lui	a1,0x53
   10dcc:	00053537          	lui	a0,0x53
   10dd0:	df0b8713          	addi	a4,s7,-528
   10dd4:	d20a0613          	addi	a2,s4,-736
   10dd8:	a8858593          	addi	a1,a1,-1400 # 52a88 <CSWTCH.18+0xfd0>
   10ddc:	e3050513          	addi	a0,a0,-464 # 52e30 <CSWTCH.18+0x1378>
   10de0:	194170ef          	jal	ra,27f74 <t_printf>
/home/user/new-os-test/testsuits-for-oskernel/libc-test/src/functional/crypt.c:31
	"$2a$04$abcdefghijklmnopqrstuv", "Aa@\xaa 0123456789")
T("$2x$04$abcdefghijklmnopqrstuubUAnPDiHn0JtKfNM4q6HN1ZsdaC1D8i",
   10de4:	00053a37          	lui	s4,0x53
   10de8:	e78a0593          	addi	a1,s4,-392 # 52e78 <CSWTCH.18+0x13c0>
   10dec:	d40a8513          	addi	a0,s5,-704
   10df0:	4a1190ef          	jal	ra,2aa90 <crypt>
   10df4:	72050e63          	beqz	a0,11530 <crypt_main+0xa78>
   10df8:	baa1bc23          	sd	a0,-1096(gp) # a8a40 <p>
/home/user/new-os-test/testsuits-for-oskernel/libc-test/src/functional/crypt.c:31 (discriminator 3)
   10dfc:	bb81b503          	ld	a0,-1096(gp) # a8a40 <p>
   10e00:	00053bb7          	lui	s7,0x53
   10e04:	e98b8593          	addi	a1,s7,-360 # 52e98 <CSWTCH.18+0x13e0>
   10e08:	3f42e0ef          	jal	ra,3f1fc <strcmp>
   10e0c:	02050263          	beqz	a0,10e30 <crypt_main+0x378>
/home/user/new-os-test/testsuits-for-oskernel/libc-test/src/functional/crypt.c:31 (discriminator 4)
   10e10:	bb81b683          	ld	a3,-1096(gp) # a8a40 <p>
   10e14:	000535b7          	lui	a1,0x53
   10e18:	00053537          	lui	a0,0x53
   10e1c:	e98b8713          	addi	a4,s7,-360
   10e20:	e78a0613          	addi	a2,s4,-392
   10e24:	d8858593          	addi	a1,a1,-632 # 52d88 <CSWTCH.18+0x12d0>
   10e28:	ed850513          	addi	a0,a0,-296 # 52ed8 <CSWTCH.18+0x1420>
   10e2c:	148170ef          	jal	ra,27f74 <t_printf>
/home/user/new-os-test/testsuits-for-oskernel/libc-test/src/functional/crypt.c:33
	"$2x$04$abcdefghijklmnopqrstuv", "\xff\xff\xff\xa3\x33\x01\x40")
T("$2x$04$abcdefghijklmnopqrstuuxYRr8W0rYwastFTc35iurVdXD9PtVhq",
   10e30:	e78a0593          	addi	a1,s4,-392
   10e34:	a5098513          	addi	a0,s3,-1456
   10e38:	459190ef          	jal	ra,2aa90 <crypt>
   10e3c:	70050063          	beqz	a0,1153c <crypt_main+0xa84>
   10e40:	baa1bc23          	sd	a0,-1096(gp) # a8a40 <p>
/home/user/new-os-test/testsuits-for-oskernel/libc-test/src/functional/crypt.c:33 (discriminator 3)
   10e44:	bb81b503          	ld	a0,-1096(gp) # a8a40 <p>
   10e48:	00053bb7          	lui	s7,0x53
   10e4c:	f20b8593          	addi	a1,s7,-224 # 52f20 <CSWTCH.18+0x1468>
   10e50:	3ac2e0ef          	jal	ra,3f1fc <strcmp>
   10e54:	02050263          	beqz	a0,10e78 <crypt_main+0x3c0>
/home/user/new-os-test/testsuits-for-oskernel/libc-test/src/functional/crypt.c:33 (discriminator 4)
   10e58:	bb81b683          	ld	a3,-1096(gp) # a8a40 <p>
   10e5c:	000535b7          	lui	a1,0x53
   10e60:	00053537          	lui	a0,0x53
   10e64:	f20b8713          	addi	a4,s7,-224
   10e68:	e78a0613          	addi	a2,s4,-392
   10e6c:	a8858593          	addi	a1,a1,-1400 # 52a88 <CSWTCH.18+0xfd0>
   10e70:	f6050513          	addi	a0,a0,-160 # 52f60 <CSWTCH.18+0x14a8>
   10e74:	100170ef          	jal	ra,27f74 <t_printf>
/home/user/new-os-test/testsuits-for-oskernel/libc-test/src/functional/crypt.c:35
	"$2x$04$abcdefghijklmnopqrstuv", "Aa@\xaa 0123456789")
T("$2y$04$abcdefghijklmnopqrstuubUAnPDiHn0JtKfNM4q6HN1ZsdaC1D8i",
   10e78:	00053a37          	lui	s4,0x53
   10e7c:	fa8a0593          	addi	a1,s4,-88 # 52fa8 <CSWTCH.18+0x14f0>
   10e80:	d40a8513          	addi	a0,s5,-704
   10e84:	40d190ef          	jal	ra,2aa90 <crypt>
   10e88:	6c050063          	beqz	a0,11548 <crypt_main+0xa90>
   10e8c:	baa1bc23          	sd	a0,-1096(gp) # a8a40 <p>
/home/user/new-os-test/testsuits-for-oskernel/libc-test/src/functional/crypt.c:35 (discriminator 3)
   10e90:	bb81b503          	ld	a0,-1096(gp) # a8a40 <p>
   10e94:	00053ab7          	lui	s5,0x53
   10e98:	fc8a8593          	addi	a1,s5,-56 # 52fc8 <CSWTCH.18+0x1510>
   10e9c:	3602e0ef          	jal	ra,3f1fc <strcmp>
   10ea0:	02050263          	beqz	a0,10ec4 <crypt_main+0x40c>
/home/user/new-os-test/testsuits-for-oskernel/libc-test/src/functional/crypt.c:35 (discriminator 4)
   10ea4:	bb81b683          	ld	a3,-1096(gp) # a8a40 <p>
   10ea8:	000535b7          	lui	a1,0x53
   10eac:	00053537          	lui	a0,0x53
   10eb0:	fc8a8713          	addi	a4,s5,-56
   10eb4:	fa8a0613          	addi	a2,s4,-88
   10eb8:	d8858593          	addi	a1,a1,-632 # 52d88 <CSWTCH.18+0x12d0>
   10ebc:	00850513          	addi	a0,a0,8 # 53008 <CSWTCH.18+0x1550>
   10ec0:	0b4170ef          	jal	ra,27f74 <t_printf>
/home/user/new-os-test/testsuits-for-oskernel/libc-test/src/functional/crypt.c:37
	"$2y$04$abcdefghijklmnopqrstuv", "\xff\xff\xff\xa3\x33\x01\x40")
T("$2y$04$abcdefghijklmnopqrstuu8J3SjO9LQpndv9O3HW/e0PB1xKk.PJu",
   10ec4:	fa8a0593          	addi	a1,s4,-88
   10ec8:	a5098513          	addi	a0,s3,-1456
   10ecc:	3c5190ef          	jal	ra,2aa90 <crypt>
   10ed0:	68050263          	beqz	a0,11554 <crypt_main+0xa9c>
   10ed4:	baa1bc23          	sd	a0,-1096(gp) # a8a40 <p>
/home/user/new-os-test/testsuits-for-oskernel/libc-test/src/functional/crypt.c:37 (discriminator 3)
   10ed8:	bb81b503          	ld	a0,-1096(gp) # a8a40 <p>
   10edc:	00053ab7          	lui	s5,0x53
   10ee0:	050a8593          	addi	a1,s5,80 # 53050 <CSWTCH.18+0x1598>
   10ee4:	3182e0ef          	jal	ra,3f1fc <strcmp>
   10ee8:	02050263          	beqz	a0,10f0c <crypt_main+0x454>
/home/user/new-os-test/testsuits-for-oskernel/libc-test/src/functional/crypt.c:37 (discriminator 4)
   10eec:	bb81b683          	ld	a3,-1096(gp) # a8a40 <p>
   10ef0:	000535b7          	lui	a1,0x53
   10ef4:	00053537          	lui	a0,0x53
   10ef8:	050a8713          	addi	a4,s5,80
   10efc:	fa8a0613          	addi	a2,s4,-88
   10f00:	a8858593          	addi	a1,a1,-1400 # 52a88 <CSWTCH.18+0xfd0>
   10f04:	09050513          	addi	a0,a0,144 # 53090 <CSWTCH.18+0x15d8>
   10f08:	06c170ef          	jal	ra,27f74 <t_printf>
/home/user/new-os-test/testsuits-for-oskernel/libc-test/src/functional/crypt.c:40
	"$2y$04$abcdefghijklmnopqrstuv", "Aa@\xaa 0123456789")
/* sha256 */
T("$5$$3c2QQ0KjIU1OLtB29cl8Fplc2WN7X89bnoEjaR7tWu.", "$5$$", "")
   10f0c:	00053a37          	lui	s4,0x53
   10f10:	0d8a0593          	addi	a1,s4,216 # 530d8 <CSWTCH.18+0x1620>
   10f14:	cc890513          	addi	a0,s2,-824
   10f18:	379190ef          	jal	ra,2aa90 <crypt>
   10f1c:	64050263          	beqz	a0,11560 <crypt_main+0xaa8>
   10f20:	baa1bc23          	sd	a0,-1096(gp) # a8a40 <p>
/home/user/new-os-test/testsuits-for-oskernel/libc-test/src/functional/crypt.c:40 (discriminator 3)
   10f24:	bb81b503          	ld	a0,-1096(gp) # a8a40 <p>
   10f28:	000534b7          	lui	s1,0x53
   10f2c:	0e048593          	addi	a1,s1,224 # 530e0 <CSWTCH.18+0x1628>
   10f30:	2cc2e0ef          	jal	ra,3f1fc <strcmp>
   10f34:	02050263          	beqz	a0,10f58 <crypt_main+0x4a0>
/home/user/new-os-test/testsuits-for-oskernel/libc-test/src/functional/crypt.c:40 (discriminator 4)
   10f38:	bb81b683          	ld	a3,-1096(gp) # a8a40 <p>
   10f3c:	000535b7          	lui	a1,0x53
   10f40:	00053537          	lui	a0,0x53
   10f44:	0e048713          	addi	a4,s1,224
   10f48:	0d8a0613          	addi	a2,s4,216
   10f4c:	97858593          	addi	a1,a1,-1672 # 52978 <CSWTCH.18+0xec0>
   10f50:	11050513          	addi	a0,a0,272 # 53110 <CSWTCH.18+0x1658>
   10f54:	020170ef          	jal	ra,27f74 <t_printf>
/home/user/new-os-test/testsuits-for-oskernel/libc-test/src/functional/crypt.c:41
T("$5$rounds=1234$abc0123456789$3VfDjPt05VHFn47C/ojFZ6KRPYrOjj1lLbH.dkF3bZ6", "$5$rounds=1234$abc0123456789$", "Xy01@#\x01\x02\x80\x7f\xff\r\n\x81\t !")
   10f58:	000534b7          	lui	s1,0x53
   10f5c:	15848593          	addi	a1,s1,344 # 53158 <CSWTCH.18+0x16a0>
   10f60:	890b0513          	addi	a0,s6,-1904
   10f64:	32d190ef          	jal	ra,2aa90 <crypt>
   10f68:	60050263          	beqz	a0,1156c <crypt_main+0xab4>
   10f6c:	baa1bc23          	sd	a0,-1096(gp) # a8a40 <p>
/home/user/new-os-test/testsuits-for-oskernel/libc-test/src/functional/crypt.c:41 (discriminator 3)
   10f70:	bb81b503          	ld	a0,-1096(gp) # a8a40 <p>
   10f74:	00053937          	lui	s2,0x53
   10f78:	17890593          	addi	a1,s2,376 # 53178 <CSWTCH.18+0x16c0>
   10f7c:	2802e0ef          	jal	ra,3f1fc <strcmp>
   10f80:	02050263          	beqz	a0,10fa4 <crypt_main+0x4ec>
/home/user/new-os-test/testsuits-for-oskernel/libc-test/src/functional/crypt.c:41 (discriminator 4)
   10f84:	bb81b683          	ld	a3,-1096(gp) # a8a40 <p>
   10f88:	000535b7          	lui	a1,0x53
   10f8c:	00053537          	lui	a0,0x53
   10f90:	17890713          	addi	a4,s2,376
   10f94:	15848613          	addi	a2,s1,344
   10f98:	8d858593          	addi	a1,a1,-1832 # 528d8 <CSWTCH.18+0xe20>
   10f9c:	1c850513          	addi	a0,a0,456 # 531c8 <CSWTCH.18+0x1710>
   10fa0:	7d5160ef          	jal	ra,27f74 <t_printf>
/home/user/new-os-test/testsuits-for-oskernel/libc-test/src/functional/crypt.c:42
T("$5$salt1234$1145V3OxW91Wl.LSS3pmBHvb2jV3ujiUhD7DgpoJtw9", "$5$salt1234$", "Aa@\xaa 0123456789")
   10fa4:	000534b7          	lui	s1,0x53
   10fa8:	21048593          	addi	a1,s1,528 # 53210 <CSWTCH.18+0x1758>
   10fac:	a5098513          	addi	a0,s3,-1456
   10fb0:	2e1190ef          	jal	ra,2aa90 <crypt>
   10fb4:	5c050463          	beqz	a0,1157c <crypt_main+0xac4>
   10fb8:	baa1bc23          	sd	a0,-1096(gp) # a8a40 <p>
/home/user/new-os-test/testsuits-for-oskernel/libc-test/src/functional/crypt.c:42 (discriminator 3)
   10fbc:	bb81b503          	ld	a0,-1096(gp) # a8a40 <p>
   10fc0:	00053937          	lui	s2,0x53
   10fc4:	22090593          	addi	a1,s2,544 # 53220 <CSWTCH.18+0x1768>
   10fc8:	2342e0ef          	jal	ra,3f1fc <strcmp>
   10fcc:	02050263          	beqz	a0,10ff0 <crypt_main+0x538>
/home/user/new-os-test/testsuits-for-oskernel/libc-test/src/functional/crypt.c:42 (discriminator 4)
   10fd0:	bb81b683          	ld	a3,-1096(gp) # a8a40 <p>
   10fd4:	000535b7          	lui	a1,0x53
   10fd8:	00053537          	lui	a0,0x53
   10fdc:	22090713          	addi	a4,s2,544
   10fe0:	21048613          	addi	a2,s1,528
   10fe4:	a8858593          	addi	a1,a1,-1400 # 52a88 <CSWTCH.18+0xfd0>
   10fe8:	25850513          	addi	a0,a0,600 # 53258 <CSWTCH.18+0x17a0>
   10fec:	789160ef          	jal	ra,27f74 <t_printf>
/home/user/new-os-test/testsuits-for-oskernel/libc-test/src/functional/crypt.c:43
T("$5$rounds=1000$$ZIwsx59lFMWVo3Yt6IxpZVn0IhpY8Yg4gxC21zUDBI4", "$5$rounds=1$", "a")
   10ff0:	00053937          	lui	s2,0x53
   10ff4:	000664b7          	lui	s1,0x66
   10ff8:	2a090593          	addi	a1,s2,672 # 532a0 <CSWTCH.18+0x17e8>
   10ffc:	62048513          	addi	a0,s1,1568 # 66620 <fp_tests+0x4858>
   11000:	291190ef          	jal	ra,2aa90 <crypt>
   11004:	58050463          	beqz	a0,1158c <crypt_main+0xad4>
   11008:	baa1bc23          	sd	a0,-1096(gp) # a8a40 <p>
/home/user/new-os-test/testsuits-for-oskernel/libc-test/src/functional/crypt.c:43 (discriminator 3)
   1100c:	bb81b503          	ld	a0,-1096(gp) # a8a40 <p>
   11010:	000539b7          	lui	s3,0x53
   11014:	2b098593          	addi	a1,s3,688 # 532b0 <CSWTCH.18+0x17f8>
   11018:	1e42e0ef          	jal	ra,3f1fc <strcmp>
   1101c:	02050263          	beqz	a0,11040 <crypt_main+0x588>
/home/user/new-os-test/testsuits-for-oskernel/libc-test/src/functional/crypt.c:43 (discriminator 4)
   11020:	bb81b683          	ld	a3,-1096(gp) # a8a40 <p>
   11024:	000535b7          	lui	a1,0x53
   11028:	00053537          	lui	a0,0x53
   1102c:	2b098713          	addi	a4,s3,688
   11030:	2a090613          	addi	a2,s2,672
   11034:	2f058593          	addi	a1,a1,752 # 532f0 <CSWTCH.18+0x1838>
   11038:	2f850513          	addi	a0,a0,760 # 532f8 <CSWTCH.18+0x1840>
   1103c:	739160ef          	jal	ra,27f74 <t_printf>
/home/user/new-os-test/testsuits-for-oskernel/libc-test/src/functional/crypt.c:44
T("$5$rounds=1234$$i.IiuqtWmTzupHAZtfV/PB33Usz.MwGHq9BKFAEj.B3", "$5$rounds=00001234$", "a")
   11040:	00053937          	lui	s2,0x53
   11044:	34090593          	addi	a1,s2,832 # 53340 <CSWTCH.18+0x1888>
   11048:	62048513          	addi	a0,s1,1568
   1104c:	245190ef          	jal	ra,2aa90 <crypt>
   11050:	54050663          	beqz	a0,1159c <crypt_main+0xae4>
   11054:	baa1bc23          	sd	a0,-1096(gp) # a8a40 <p>
/home/user/new-os-test/testsuits-for-oskernel/libc-test/src/functional/crypt.c:44 (discriminator 3)
   11058:	bb81b503          	ld	a0,-1096(gp) # a8a40 <p>
   1105c:	000539b7          	lui	s3,0x53
   11060:	35898593          	addi	a1,s3,856 # 53358 <CSWTCH.18+0x18a0>
   11064:	1982e0ef          	jal	ra,3f1fc <strcmp>
   11068:	02050263          	beqz	a0,1108c <crypt_main+0x5d4>
/home/user/new-os-test/testsuits-for-oskernel/libc-test/src/functional/crypt.c:44 (discriminator 4)
   1106c:	bb81b683          	ld	a3,-1096(gp) # a8a40 <p>
   11070:	000535b7          	lui	a1,0x53
   11074:	00053537          	lui	a0,0x53
   11078:	35898713          	addi	a4,s3,856
   1107c:	34090613          	addi	a2,s2,832
   11080:	2f058593          	addi	a1,a1,752 # 532f0 <CSWTCH.18+0x1838>
   11084:	39850513          	addi	a0,a0,920 # 53398 <CSWTCH.18+0x18e0>
   11088:	6ed160ef          	jal	ra,27f74 <t_printf>
/home/user/new-os-test/testsuits-for-oskernel/libc-test/src/functional/crypt.c:55
//T("*", "$5$rounds= 1234$", "")
//T("*", "$5$rounds=1234567890123456789012345678901234567890$", "")
//T("*", "$5$rounds=  +00$", "")
//T("*", "$5$rounds=-4294965296$", "")
/* official tests */
T("$5$saltstring$5B8vYYiY.CVt1RlTTf8KbXBH3hsxY/GNooZaBBGWEc5",
   1108c:	00053937          	lui	s2,0x53
   11090:	00053ab7          	lui	s5,0x53
   11094:	3e090593          	addi	a1,s2,992 # 533e0 <CSWTCH.18+0x1928>
   11098:	3f0a8513          	addi	a0,s5,1008 # 533f0 <CSWTCH.18+0x1938>
   1109c:	1f5190ef          	jal	ra,2aa90 <crypt>
   110a0:	50050663          	beqz	a0,115ac <crypt_main+0xaf4>
   110a4:	baa1bc23          	sd	a0,-1096(gp) # a8a40 <p>
/home/user/new-os-test/testsuits-for-oskernel/libc-test/src/functional/crypt.c:55 (discriminator 3)
   110a8:	bb81b503          	ld	a0,-1096(gp) # a8a40 <p>
   110ac:	000539b7          	lui	s3,0x53
   110b0:	40098593          	addi	a1,s3,1024 # 53400 <CSWTCH.18+0x1948>
   110b4:	1482e0ef          	jal	ra,3f1fc <strcmp>
   110b8:	02050263          	beqz	a0,110dc <crypt_main+0x624>
/home/user/new-os-test/testsuits-for-oskernel/libc-test/src/functional/crypt.c:55 (discriminator 4)
   110bc:	bb81b683          	ld	a3,-1096(gp) # a8a40 <p>
   110c0:	000535b7          	lui	a1,0x53
   110c4:	00053537          	lui	a0,0x53
   110c8:	40098713          	addi	a4,s3,1024
   110cc:	3e090613          	addi	a2,s2,992
   110d0:	44058593          	addi	a1,a1,1088 # 53440 <CSWTCH.18+0x1988>
   110d4:	45050513          	addi	a0,a0,1104 # 53450 <CSWTCH.18+0x1998>
   110d8:	69d160ef          	jal	ra,27f74 <t_printf>
/home/user/new-os-test/testsuits-for-oskernel/libc-test/src/functional/crypt.c:57
	"$5$saltstring", "Hello world!")
T("$5$rounds=5000$toolongsaltstrin$Un/5jzAHMgOGZ5.mWJpuVolil07guHPvOW8mGRcvxa5",
   110dc:	00053937          	lui	s2,0x53
   110e0:	00053a37          	lui	s4,0x53
   110e4:	49890593          	addi	a1,s2,1176 # 53498 <CSWTCH.18+0x19e0>
   110e8:	4c0a0513          	addi	a0,s4,1216 # 534c0 <CSWTCH.18+0x1a08>
   110ec:	1a5190ef          	jal	ra,2aa90 <crypt>
   110f0:	4c050663          	beqz	a0,115bc <crypt_main+0xb04>
   110f4:	baa1bc23          	sd	a0,-1096(gp) # a8a40 <p>
/home/user/new-os-test/testsuits-for-oskernel/libc-test/src/functional/crypt.c:57 (discriminator 3)
   110f8:	bb81b503          	ld	a0,-1096(gp) # a8a40 <p>
   110fc:	000539b7          	lui	s3,0x53
   11100:	4d898593          	addi	a1,s3,1240 # 534d8 <CSWTCH.18+0x1a20>
   11104:	0f82e0ef          	jal	ra,3f1fc <strcmp>
   11108:	02050263          	beqz	a0,1112c <crypt_main+0x674>
/home/user/new-os-test/testsuits-for-oskernel/libc-test/src/functional/crypt.c:57 (discriminator 4)
   1110c:	bb81b683          	ld	a3,-1096(gp) # a8a40 <p>
   11110:	000535b7          	lui	a1,0x53
   11114:	00053537          	lui	a0,0x53
   11118:	4d898713          	addi	a4,s3,1240
   1111c:	49890613          	addi	a2,s2,1176
   11120:	52858593          	addi	a1,a1,1320 # 53528 <CSWTCH.18+0x1a70>
   11124:	54050513          	addi	a0,a0,1344 # 53540 <CSWTCH.18+0x1a88>
   11128:	64d160ef          	jal	ra,27f74 <t_printf>
/home/user/new-os-test/testsuits-for-oskernel/libc-test/src/functional/crypt.c:59
	"$5$rounds=5000$toolongsaltstring", "This is just a test")
T("$5$rounds=1400$anotherlongsalts$Rx.j8H.h8HjEDGomFU8bDkXm3XIUnzyxf12oP84Bnq1",
   1112c:	00053937          	lui	s2,0x53
   11130:	000539b7          	lui	s3,0x53
   11134:	58890593          	addi	a1,s2,1416 # 53588 <CSWTCH.18+0x1ad0>
   11138:	5b098513          	addi	a0,s3,1456 # 535b0 <CSWTCH.18+0x1af8>
   1113c:	155190ef          	jal	ra,2aa90 <crypt>
   11140:	48050663          	beqz	a0,115cc <crypt_main+0xb14>
   11144:	baa1bc23          	sd	a0,-1096(gp) # a8a40 <p>
/home/user/new-os-test/testsuits-for-oskernel/libc-test/src/functional/crypt.c:59 (discriminator 3)
   11148:	bb81b503          	ld	a0,-1096(gp) # a8a40 <p>
   1114c:	00053b37          	lui	s6,0x53
   11150:	608b0593          	addi	a1,s6,1544 # 53608 <CSWTCH.18+0x1b50>
   11154:	0a82e0ef          	jal	ra,3f1fc <strcmp>
   11158:	02050263          	beqz	a0,1117c <crypt_main+0x6c4>
/home/user/new-os-test/testsuits-for-oskernel/libc-test/src/functional/crypt.c:59 (discriminator 4)
   1115c:	bb81b683          	ld	a3,-1096(gp) # a8a40 <p>
   11160:	000535b7          	lui	a1,0x53
   11164:	00053537          	lui	a0,0x53
   11168:	608b0713          	addi	a4,s6,1544
   1116c:	58890613          	addi	a2,s2,1416
   11170:	65858593          	addi	a1,a1,1624 # 53658 <CSWTCH.18+0x1ba0>
   11174:	6b050513          	addi	a0,a0,1712 # 536b0 <CSWTCH.18+0x1bf8>
   11178:	5fd160ef          	jal	ra,27f74 <t_printf>
/home/user/new-os-test/testsuits-for-oskernel/libc-test/src/functional/crypt.c:61
	"$5$rounds=1400$anotherlongsaltstring", "a very much longer text to encrypt.  This one even stretches over morethan one line.")
T("$5$rounds=1000$roundstoolow$yfvwcWrQ8l/K0DAWyuPMDNHpIVlTQebY9l/gL972bIC",
   1117c:	00053b37          	lui	s6,0x53
   11180:	00053937          	lui	s2,0x53
   11184:	6f8b0593          	addi	a1,s6,1784 # 536f8 <CSWTCH.18+0x1c40>
   11188:	71890513          	addi	a0,s2,1816 # 53718 <CSWTCH.18+0x1c60>
   1118c:	105190ef          	jal	ra,2aa90 <crypt>
   11190:	44050663          	beqz	a0,115dc <crypt_main+0xb24>
   11194:	baa1bc23          	sd	a0,-1096(gp) # a8a40 <p>
/home/user/new-os-test/testsuits-for-oskernel/libc-test/src/functional/crypt.c:61 (discriminator 3)
   11198:	bb81b503          	ld	a0,-1096(gp) # a8a40 <p>
   1119c:	00053bb7          	lui	s7,0x53
   111a0:	740b8593          	addi	a1,s7,1856 # 53740 <CSWTCH.18+0x1c88>
   111a4:	0582e0ef          	jal	ra,3f1fc <strcmp>
   111a8:	02050263          	beqz	a0,111cc <crypt_main+0x714>
/home/user/new-os-test/testsuits-for-oskernel/libc-test/src/functional/crypt.c:61 (discriminator 4)
   111ac:	bb81b683          	ld	a3,-1096(gp) # a8a40 <p>
   111b0:	000535b7          	lui	a1,0x53
   111b4:	00053537          	lui	a0,0x53
   111b8:	740b8713          	addi	a4,s7,1856
   111bc:	6f8b0613          	addi	a2,s6,1784
   111c0:	78858593          	addi	a1,a1,1928 # 53788 <CSWTCH.18+0x1cd0>
   111c4:	7b050513          	addi	a0,a0,1968 # 537b0 <CSWTCH.18+0x1cf8>
   111c8:	5ad160ef          	jal	ra,27f74 <t_printf>
/home/user/new-os-test/testsuits-for-oskernel/libc-test/src/functional/crypt.c:71
//T("$5$rounds=77777$short$JiO1O3ZpDAxGJeaDIuqCoEFysAe1mZNJRs3pw0KQRd/",
//	"$5$rounds=77777$short", "we have a short salt string but not a short password")
//T("$5$rounds=123456$asaltof16chars..$gP3VQ/6X7UUEW3HkBn2w1/Ptq2jxPyzV/cZKmF/wJvD",
//	"$5$rounds=123456$asaltof16chars..", "a short string")
/* sha512 */
T("$6$$/chiBau24cE26QQVW3IfIe68Xu5.JQ4E8Ie7lcRLwqxO5cxGuBhqF2HmTL.zWJ9zjChg3yJYFXeGBQ2y3Ba1d1",
   111cc:	00053b37          	lui	s6,0x53
   111d0:	0006f537          	lui	a0,0x6f
   111d4:	7f8b0593          	addi	a1,s6,2040 # 537f8 <CSWTCH.18+0x1d40>
   111d8:	cc850513          	addi	a0,a0,-824 # 6ecc8 <t+0x1758>
   111dc:	0b5190ef          	jal	ra,2aa90 <crypt>
   111e0:	40050663          	beqz	a0,115ec <crypt_main+0xb34>
   111e4:	baa1bc23          	sd	a0,-1096(gp) # a8a40 <p>
/home/user/new-os-test/testsuits-for-oskernel/libc-test/src/functional/crypt.c:71 (discriminator 3)
   111e8:	bb81b503          	ld	a0,-1096(gp) # a8a40 <p>
   111ec:	00054bb7          	lui	s7,0x54
   111f0:	800b8593          	addi	a1,s7,-2048 # 53800 <CSWTCH.18+0x1d48>
   111f4:	0082e0ef          	jal	ra,3f1fc <strcmp>
   111f8:	02050263          	beqz	a0,1121c <crypt_main+0x764>
/home/user/new-os-test/testsuits-for-oskernel/libc-test/src/functional/crypt.c:71 (discriminator 4)
   111fc:	bb81b683          	ld	a3,-1096(gp) # a8a40 <p>
   11200:	000535b7          	lui	a1,0x53
   11204:	00054537          	lui	a0,0x54
   11208:	800b8713          	addi	a4,s7,-2048
   1120c:	7f8b0613          	addi	a2,s6,2040
   11210:	97858593          	addi	a1,a1,-1672 # 52978 <CSWTCH.18+0xec0>
   11214:	86050513          	addi	a0,a0,-1952 # 53860 <CSWTCH.18+0x1da8>
   11218:	55d160ef          	jal	ra,27f74 <t_printf>
/home/user/new-os-test/testsuits-for-oskernel/libc-test/src/functional/crypt.c:73
	"$6$$", "")
T("$6$rounds=1234$abc0123456789$BCpt8zLrc/RcyuXmCDOE1ALqMXB2MH6n1g891HhFj8.w7LxGv.FTkqq6Vxc/km3Y0jE0j24jY5PIv/oOu6reg1",
   1121c:	00054b37          	lui	s6,0x54
   11220:	00053537          	lui	a0,0x53
   11224:	8a8b0593          	addi	a1,s6,-1880 # 538a8 <CSWTCH.18+0x1df0>
   11228:	89050513          	addi	a0,a0,-1904 # 52890 <CSWTCH.18+0xdd8>
   1122c:	065190ef          	jal	ra,2aa90 <crypt>
   11230:	3c050663          	beqz	a0,115fc <crypt_main+0xb44>
   11234:	baa1bc23          	sd	a0,-1096(gp) # a8a40 <p>
/home/user/new-os-test/testsuits-for-oskernel/libc-test/src/functional/crypt.c:73 (discriminator 3)
   11238:	bb81b503          	ld	a0,-1096(gp) # a8a40 <p>
   1123c:	00054bb7          	lui	s7,0x54
   11240:	8c8b8593          	addi	a1,s7,-1848 # 538c8 <CSWTCH.18+0x1e10>
   11244:	7b92d0ef          	jal	ra,3f1fc <strcmp>
   11248:	02050263          	beqz	a0,1126c <crypt_main+0x7b4>
/home/user/new-os-test/testsuits-for-oskernel/libc-test/src/functional/crypt.c:73 (discriminator 4)
   1124c:	bb81b683          	ld	a3,-1096(gp) # a8a40 <p>
   11250:	000535b7          	lui	a1,0x53
   11254:	00054537          	lui	a0,0x54
   11258:	8c8b8713          	addi	a4,s7,-1848
   1125c:	8a8b0613          	addi	a2,s6,-1880
   11260:	8d858593          	addi	a1,a1,-1832 # 528d8 <CSWTCH.18+0xe20>
   11264:	94050513          	addi	a0,a0,-1728 # 53940 <CSWTCH.18+0x1e88>
   11268:	50d160ef          	jal	ra,27f74 <t_printf>
/home/user/new-os-test/testsuits-for-oskernel/libc-test/src/functional/crypt.c:75
	"$6$rounds=1234$abc0123456789$", "Xy01@#\x01\x02\x80\x7f\xff\r\n\x81\t !")
T("$6$salt1234$44TYByJTJkEpcbmj8XzV6H7ltUN.7FUFFWKGeph85fMuAME8f1yQnXxqPbz6gfMq7tisOjTrxg3S2DDebWewt1",
   1126c:	00054b37          	lui	s6,0x54
   11270:	00053537          	lui	a0,0x53
   11274:	988b0593          	addi	a1,s6,-1656 # 53988 <CSWTCH.18+0x1ed0>
   11278:	a5050513          	addi	a0,a0,-1456 # 52a50 <CSWTCH.18+0xf98>
   1127c:	015190ef          	jal	ra,2aa90 <crypt>
   11280:	38050663          	beqz	a0,1160c <crypt_main+0xb54>
   11284:	baa1bc23          	sd	a0,-1096(gp) # a8a40 <p>
/home/user/new-os-test/testsuits-for-oskernel/libc-test/src/functional/crypt.c:75 (discriminator 3)
   11288:	bb81b503          	ld	a0,-1096(gp) # a8a40 <p>
   1128c:	00054bb7          	lui	s7,0x54
   11290:	998b8593          	addi	a1,s7,-1640 # 53998 <CSWTCH.18+0x1ee0>
   11294:	7692d0ef          	jal	ra,3f1fc <strcmp>
   11298:	02050263          	beqz	a0,112bc <crypt_main+0x804>
/home/user/new-os-test/testsuits-for-oskernel/libc-test/src/functional/crypt.c:75 (discriminator 4)
   1129c:	bb81b683          	ld	a3,-1096(gp) # a8a40 <p>
   112a0:	000535b7          	lui	a1,0x53
   112a4:	00054537          	lui	a0,0x54
   112a8:	998b8713          	addi	a4,s7,-1640
   112ac:	988b0613          	addi	a2,s6,-1656
   112b0:	a8858593          	addi	a1,a1,-1400 # 52a88 <CSWTCH.18+0xfd0>
   112b4:	a0050513          	addi	a0,a0,-1536 # 53a00 <CSWTCH.18+0x1f48>
   112b8:	4bd160ef          	jal	ra,27f74 <t_printf>
/home/user/new-os-test/testsuits-for-oskernel/libc-test/src/functional/crypt.c:77
	"$6$salt1234$", "Aa@\xaa 0123456789")
T("$6$rounds=1000$$hETGMQQ5sXu1md3PrmRCM4AxTgbNpYQaIhk4xQzvCiNfeogfCR9PZGSRXghUOxMAPFU2wuz/ZLafIHrHopO.60",
   112bc:	00054b37          	lui	s6,0x54
   112c0:	a48b0593          	addi	a1,s6,-1464 # 53a48 <CSWTCH.18+0x1f90>
   112c4:	62048513          	addi	a0,s1,1568
   112c8:	7c8190ef          	jal	ra,2aa90 <crypt>
   112cc:	34050863          	beqz	a0,1161c <crypt_main+0xb64>
   112d0:	baa1bc23          	sd	a0,-1096(gp) # a8a40 <p>
/home/user/new-os-test/testsuits-for-oskernel/libc-test/src/functional/crypt.c:77 (discriminator 3)
   112d4:	bb81b503          	ld	a0,-1096(gp) # a8a40 <p>
   112d8:	00054bb7          	lui	s7,0x54
   112dc:	a58b8593          	addi	a1,s7,-1448 # 53a58 <CSWTCH.18+0x1fa0>
   112e0:	71d2d0ef          	jal	ra,3f1fc <strcmp>
   112e4:	02050263          	beqz	a0,11308 <crypt_main+0x850>
/home/user/new-os-test/testsuits-for-oskernel/libc-test/src/functional/crypt.c:77 (discriminator 4)
   112e8:	bb81b683          	ld	a3,-1096(gp) # a8a40 <p>
   112ec:	000535b7          	lui	a1,0x53
   112f0:	00054537          	lui	a0,0x54
   112f4:	a58b8713          	addi	a4,s7,-1448
   112f8:	a48b0613          	addi	a2,s6,-1464
   112fc:	2f058593          	addi	a1,a1,752 # 532f0 <CSWTCH.18+0x1838>
   11300:	ac050513          	addi	a0,a0,-1344 # 53ac0 <CSWTCH.18+0x2008>
   11304:	471160ef          	jal	ra,27f74 <t_printf>
/home/user/new-os-test/testsuits-for-oskernel/libc-test/src/functional/crypt.c:79
	"$6$rounds=1$", "a")
T("$6$rounds=1234$$.9spjeVb1fINMikxgAZEpur.ZQ/Gte./HuKWm2sAZ37eK3e1.ZdfRuatKdR/H..lKQfb2AB.RtHh7xKm.FE2J.",
   11308:	00054b37          	lui	s6,0x54
   1130c:	b08b0593          	addi	a1,s6,-1272 # 53b08 <CSWTCH.18+0x2050>
   11310:	62048513          	addi	a0,s1,1568
   11314:	77c190ef          	jal	ra,2aa90 <crypt>
   11318:	30050a63          	beqz	a0,1162c <crypt_main+0xb74>
   1131c:	baa1bc23          	sd	a0,-1096(gp) # a8a40 <p>
/home/user/new-os-test/testsuits-for-oskernel/libc-test/src/functional/crypt.c:79 (discriminator 3)
   11320:	bb81b503          	ld	a0,-1096(gp) # a8a40 <p>
   11324:	000544b7          	lui	s1,0x54
   11328:	b2048593          	addi	a1,s1,-1248 # 53b20 <CSWTCH.18+0x2068>
   1132c:	6d12d0ef          	jal	ra,3f1fc <strcmp>
   11330:	02050263          	beqz	a0,11354 <crypt_main+0x89c>
/home/user/new-os-test/testsuits-for-oskernel/libc-test/src/functional/crypt.c:79 (discriminator 4)
   11334:	bb81b683          	ld	a3,-1096(gp) # a8a40 <p>
   11338:	000535b7          	lui	a1,0x53
   1133c:	00054537          	lui	a0,0x54
   11340:	b2048713          	addi	a4,s1,-1248
   11344:	b08b0613          	addi	a2,s6,-1272
   11348:	2f058593          	addi	a1,a1,752 # 532f0 <CSWTCH.18+0x1838>
   1134c:	b8850513          	addi	a0,a0,-1144 # 53b88 <CSWTCH.18+0x20d0>
   11350:	425160ef          	jal	ra,27f74 <t_printf>
/home/user/new-os-test/testsuits-for-oskernel/libc-test/src/functional/crypt.c:91
//T("*", "$6$rounds= 1234$", "")
//T("*", "$6$rounds=1234567890123456789012345678901234567890$", "")
//T("*", "$6$rounds=  +00$", "")
//T("*", "$6$rounds=-4294965296$", "")
/* official tests */
T("$6$saltstring$svn8UoSVapNtMuq1ukKS4tPQd8iKwSMHWjl/O817G3uBnIFNjnQJuesI68u4OTLiBFdcbYEdFCoEOfaS35inz1",
   11354:	000544b7          	lui	s1,0x54
   11358:	bd048593          	addi	a1,s1,-1072 # 53bd0 <CSWTCH.18+0x2118>
   1135c:	3f0a8513          	addi	a0,s5,1008
   11360:	730190ef          	jal	ra,2aa90 <crypt>
   11364:	2c050c63          	beqz	a0,1163c <crypt_main+0xb84>
   11368:	baa1bc23          	sd	a0,-1096(gp) # a8a40 <p>
/home/user/new-os-test/testsuits-for-oskernel/libc-test/src/functional/crypt.c:91 (discriminator 3)
   1136c:	bb81b503          	ld	a0,-1096(gp) # a8a40 <p>
   11370:	00054ab7          	lui	s5,0x54
   11374:	be0a8593          	addi	a1,s5,-1056 # 53be0 <CSWTCH.18+0x2128>
   11378:	6852d0ef          	jal	ra,3f1fc <strcmp>
   1137c:	02050263          	beqz	a0,113a0 <crypt_main+0x8e8>
/home/user/new-os-test/testsuits-for-oskernel/libc-test/src/functional/crypt.c:91 (discriminator 4)
   11380:	bb81b683          	ld	a3,-1096(gp) # a8a40 <p>
   11384:	000535b7          	lui	a1,0x53
   11388:	00054537          	lui	a0,0x54
   1138c:	be0a8713          	addi	a4,s5,-1056
   11390:	bd048613          	addi	a2,s1,-1072
   11394:	44058593          	addi	a1,a1,1088 # 53440 <CSWTCH.18+0x1988>
   11398:	c4850513          	addi	a0,a0,-952 # 53c48 <CSWTCH.18+0x2190>
   1139c:	3d9160ef          	jal	ra,27f74 <t_printf>
/home/user/new-os-test/testsuits-for-oskernel/libc-test/src/functional/crypt.c:93
	"$6$saltstring", "Hello world!")
T("$6$rounds=5000$toolongsaltstrin$lQ8jolhgVRVhY4b5pZKaysCLi0QBxGoNeKQzQ3glMhwllF7oGDZxUhx1yxdYcz/e1JSbq3y6JMxxl8audkUEm0",
   113a0:	000544b7          	lui	s1,0x54
   113a4:	c9048593          	addi	a1,s1,-880 # 53c90 <CSWTCH.18+0x21d8>
   113a8:	4c0a0513          	addi	a0,s4,1216
   113ac:	6e4190ef          	jal	ra,2aa90 <crypt>
   113b0:	28050e63          	beqz	a0,1164c <crypt_main+0xb94>
   113b4:	baa1bc23          	sd	a0,-1096(gp) # a8a40 <p>
/home/user/new-os-test/testsuits-for-oskernel/libc-test/src/functional/crypt.c:93 (discriminator 3)
   113b8:	bb81b503          	ld	a0,-1096(gp) # a8a40 <p>
   113bc:	00054a37          	lui	s4,0x54
   113c0:	cb8a0593          	addi	a1,s4,-840 # 53cb8 <CSWTCH.18+0x2200>
   113c4:	6392d0ef          	jal	ra,3f1fc <strcmp>
   113c8:	02050263          	beqz	a0,113ec <crypt_main+0x934>
/home/user/new-os-test/testsuits-for-oskernel/libc-test/src/functional/crypt.c:93 (discriminator 4)
   113cc:	bb81b683          	ld	a3,-1096(gp) # a8a40 <p>
   113d0:	000535b7          	lui	a1,0x53
   113d4:	00054537          	lui	a0,0x54
   113d8:	cb8a0713          	addi	a4,s4,-840
   113dc:	c9048613          	addi	a2,s1,-880
   113e0:	52858593          	addi	a1,a1,1320 # 53528 <CSWTCH.18+0x1a70>
   113e4:	d3050513          	addi	a0,a0,-720 # 53d30 <CSWTCH.18+0x2278>
   113e8:	38d160ef          	jal	ra,27f74 <t_printf>
/home/user/new-os-test/testsuits-for-oskernel/libc-test/src/functional/crypt.c:95
	"$6$rounds=5000$toolongsaltstring", "This is just a test")
T("$6$rounds=1400$anotherlongsalts$POfYwTEok97VWcjxIiSOjiykti.o/pQs.wPvMxQ6Fm7I6IoYN3CmLs66x9t0oSwbtEW7o7UmJEiDwGqd8p4ur1",
   113ec:	000544b7          	lui	s1,0x54
   113f0:	d7848593          	addi	a1,s1,-648 # 53d78 <CSWTCH.18+0x22c0>
   113f4:	5b098513          	addi	a0,s3,1456
   113f8:	698190ef          	jal	ra,2aa90 <crypt>
   113fc:	26050063          	beqz	a0,1165c <crypt_main+0xba4>
   11400:	baa1bc23          	sd	a0,-1096(gp) # a8a40 <p>
/home/user/new-os-test/testsuits-for-oskernel/libc-test/src/functional/crypt.c:95 (discriminator 3)
   11404:	bb81b503          	ld	a0,-1096(gp) # a8a40 <p>
   11408:	000549b7          	lui	s3,0x54
   1140c:	da098593          	addi	a1,s3,-608 # 53da0 <CSWTCH.18+0x22e8>
   11410:	5ed2d0ef          	jal	ra,3f1fc <strcmp>
   11414:	02050263          	beqz	a0,11438 <crypt_main+0x980>
/home/user/new-os-test/testsuits-for-oskernel/libc-test/src/functional/crypt.c:95 (discriminator 4)
   11418:	bb81b683          	ld	a3,-1096(gp) # a8a40 <p>
   1141c:	000535b7          	lui	a1,0x53
   11420:	00054537          	lui	a0,0x54
   11424:	da098713          	addi	a4,s3,-608
   11428:	d7848613          	addi	a2,s1,-648
   1142c:	65858593          	addi	a1,a1,1624 # 53658 <CSWTCH.18+0x1ba0>
   11430:	e1850513          	addi	a0,a0,-488 # 53e18 <CSWTCH.18+0x2360>
   11434:	341160ef          	jal	ra,27f74 <t_printf>
/home/user/new-os-test/testsuits-for-oskernel/libc-test/src/functional/crypt.c:97
	"$6$rounds=1400$anotherlongsaltstring", "a very much longer text to encrypt.  This one even stretches over morethan one line.")
T("$6$rounds=1000$roundstoolow$kUMsbe306n21p9R.FRkW3IGn.S9NPN0x50YhH1xhLsPuWGsUSklZt58jaTfF4ZEQpyUNGc0dqbpBYYBaHHrsX.",
   11438:	000544b7          	lui	s1,0x54
   1143c:	e6048593          	addi	a1,s1,-416 # 53e60 <CSWTCH.18+0x23a8>
   11440:	71890513          	addi	a0,s2,1816
   11444:	64c190ef          	jal	ra,2aa90 <crypt>
   11448:	22050263          	beqz	a0,1166c <crypt_main+0xbb4>
   1144c:	baa1bc23          	sd	a0,-1096(gp) # a8a40 <p>
/home/user/new-os-test/testsuits-for-oskernel/libc-test/src/functional/crypt.c:97 (discriminator 3)
   11450:	bb81b503          	ld	a0,-1096(gp) # a8a40 <p>
   11454:	00054937          	lui	s2,0x54
   11458:	e8090593          	addi	a1,s2,-384 # 53e80 <CSWTCH.18+0x23c8>
   1145c:	5a12d0ef          	jal	ra,3f1fc <strcmp>
   11460:	02050263          	beqz	a0,11484 <crypt_main+0x9cc>
/home/user/new-os-test/testsuits-for-oskernel/libc-test/src/functional/crypt.c:97 (discriminator 4)
   11464:	bb81b683          	ld	a3,-1096(gp) # a8a40 <p>
   11468:	000535b7          	lui	a1,0x53
   1146c:	00054537          	lui	a0,0x54
   11470:	e8090713          	addi	a4,s2,-384
   11474:	e6048613          	addi	a2,s1,-416
   11478:	78858593          	addi	a1,a1,1928 # 53788 <CSWTCH.18+0x1cd0>
   1147c:	ef850513          	addi	a0,a0,-264 # 53ef8 <CSWTCH.18+0x2440>
   11480:	2f5160ef          	jal	ra,27f74 <t_printf>
/home/user/new-os-test/testsuits-for-oskernel/libc-test/src/functional/crypt.c:107
//T("$6$rounds=77777$short$WuQyW2YR.hBNpjjRhpYD/ifIw05xdfeEyQoMxIXbkvr0gge1a1x3yRULJ5CCaUeOxFmtlcGZelFl5CxtgfiAc0",
//	"$6$rounds=77777$short", "we have a short salt string but not a short password")
//T("$6$rounds=123456$asaltof16chars..$BtCwjqMJGx5hrJhZywWvt0RLE8uZ4oPwcelCjmw2kSYu.Ec6ycULevoBK25fs2xXgMNrCzIMVcgEJAstJeonj1",
//	"$6$rounds=123456$asaltof16chars..", "a short string")

return t_status;
   11484:	bb01a503          	lw	a0,-1104(gp) # a8a38 <_edata>
/home/user/new-os-test/testsuits-for-oskernel/libc-test/src/functional/crypt.c:108
}
   11488:	04813083          	ld	ra,72(sp)
   1148c:	04013403          	ld	s0,64(sp)
   11490:	03813483          	ld	s1,56(sp)
   11494:	03013903          	ld	s2,48(sp)
   11498:	02813983          	ld	s3,40(sp)
   1149c:	02013a03          	ld	s4,32(sp)
   114a0:	01813a83          	ld	s5,24(sp)
   114a4:	01013b03          	ld	s6,16(sp)
   114a8:	00813b83          	ld	s7,8(sp)
   114ac:	0005051b          	sext.w	a0,a0
   114b0:	05010113          	addi	sp,sp,80
   114b4:	00008067          	ret
/home/user/new-os-test/testsuits-for-oskernel/libc-test/src/functional/crypt.c:15 (discriminator 1)
T("$1$abcd0123$9Qcg8DyviekV3tDGMZynJ1", "$1$abcd0123$", "Xy01@#\x01\x02\x80\x7f\xff\r\n\x81\t !")
   114b8:	8a848793          	addi	a5,s1,-1880
   114bc:	baf1bc23          	sd	a5,-1096(gp) # a8a40 <p>
   114c0:	e40ff06f          	j	10b00 <crypt_main+0x48>
/home/user/new-os-test/testsuits-for-oskernel/libc-test/src/functional/crypt.c:16 (discriminator 1)
T("$1$$qRPK7m23GJusamGpoGLby/", "$1$$", "")
   114c4:	8a848793          	addi	a5,s1,-1880
   114c8:	baf1bc23          	sd	a5,-1096(gp) # a8a40 <p>
   114cc:	e84ff06f          	j	10b50 <crypt_main+0x98>
/home/user/new-os-test/testsuits-for-oskernel/libc-test/src/functional/crypt.c:17 (discriminator 1)
T("$1$salt$UsdFqFVB.FsuinRDK5eE..", "$1$salt$", "")
   114d0:	8a848793          	addi	a5,s1,-1880
   114d4:	baf1bc23          	sd	a5,-1096(gp) # a8a40 <p>
   114d8:	ec4ff06f          	j	10b9c <crypt_main+0xe4>
/home/user/new-os-test/testsuits-for-oskernel/libc-test/src/functional/crypt.c:18 (discriminator 1)
T("$1$salt1234$.pylIeU8A8nhxsVrZNOP..", "$1$salt1234$", "Aa@\xaa 0123456789")
   114dc:	8a848793          	addi	a5,s1,-1880
   114e0:	baf1bc23          	sd	a5,-1096(gp) # a8a40 <p>
   114e4:	f08ff06f          	j	10bec <crypt_main+0x134>
/home/user/new-os-test/testsuits-for-oskernel/libc-test/src/functional/crypt.c:19 (discriminator 1)
T("$1$aaaaaaaa$zqksdEYCs/p2VrrMTPU0x0", "$1$aaaaaaaaaaaaaaaaaaaa$", "aaaaaaaaaaaaaaaaaaaa")
   114e8:	8a848793          	addi	a5,s1,-1880
   114ec:	baf1bc23          	sd	a5,-1096(gp) # a8a40 <p>
   114f0:	f4cff06f          	j	10c3c <crypt_main+0x184>
/home/user/new-os-test/testsuits-for-oskernel/libc-test/src/functional/crypt.c:21 (discriminator 1)
T("*",
   114f4:	8a848793          	addi	a5,s1,-1880
   114f8:	baf1bc23          	sd	a5,-1096(gp) # a8a40 <p>
   114fc:	f8cff06f          	j	10c88 <crypt_main+0x1d0>
/home/user/new-os-test/testsuits-for-oskernel/libc-test/src/functional/crypt.c:23 (discriminator 1)
T("*",
   11500:	8a848793          	addi	a5,s1,-1880
   11504:	baf1bc23          	sd	a5,-1096(gp) # a8a40 <p>
   11508:	fc8ff06f          	j	10cd0 <crypt_main+0x218>
/home/user/new-os-test/testsuits-for-oskernel/libc-test/src/functional/crypt.c:25 (discriminator 1)
T("$2a$04$012345678901234567890u8auMTJmy9uQv1pCMPSGmRjXec5nzCf6",
   1150c:	8a848793          	addi	a5,s1,-1880
   11510:	baf1bc23          	sd	a5,-1096(gp) # a8a40 <p>
   11514:	805ff06f          	j	10d18 <crypt_main+0x260>
/home/user/new-os-test/testsuits-for-oskernel/libc-test/src/functional/crypt.c:27 (discriminator 1)
T("$2a$04$abcdefghijklmnopqrstuuEgxSMhZgdHqm5w1Iw6ZfXSn4If4J406",
   11518:	8a848793          	addi	a5,s1,-1880
   1151c:	baf1bc23          	sd	a5,-1096(gp) # a8a40 <p>
   11520:	849ff06f          	j	10d68 <crypt_main+0x2b0>
/home/user/new-os-test/testsuits-for-oskernel/libc-test/src/functional/crypt.c:29 (discriminator 1)
T("$2a$04$abcdefghijklmnopqrstuu8J3SjO9LQpndv9O3HW/e0PB1xKk.PJu",
   11524:	8a848793          	addi	a5,s1,-1880
   11528:	baf1bc23          	sd	a5,-1096(gp) # a8a40 <p>
   1152c:	885ff06f          	j	10db0 <crypt_main+0x2f8>
/home/user/new-os-test/testsuits-for-oskernel/libc-test/src/functional/crypt.c:31 (discriminator 1)
T("$2x$04$abcdefghijklmnopqrstuubUAnPDiHn0JtKfNM4q6HN1ZsdaC1D8i",
   11530:	8a848793          	addi	a5,s1,-1880
   11534:	baf1bc23          	sd	a5,-1096(gp) # a8a40 <p>
   11538:	8c5ff06f          	j	10dfc <crypt_main+0x344>
/home/user/new-os-test/testsuits-for-oskernel/libc-test/src/functional/crypt.c:33 (discriminator 1)
T("$2x$04$abcdefghijklmnopqrstuuxYRr8W0rYwastFTc35iurVdXD9PtVhq",
   1153c:	8a848793          	addi	a5,s1,-1880
   11540:	baf1bc23          	sd	a5,-1096(gp) # a8a40 <p>
   11544:	901ff06f          	j	10e44 <crypt_main+0x38c>
/home/user/new-os-test/testsuits-for-oskernel/libc-test/src/functional/crypt.c:35 (discriminator 1)
T("$2y$04$abcdefghijklmnopqrstuubUAnPDiHn0JtKfNM4q6HN1ZsdaC1D8i",
   11548:	8a848793          	addi	a5,s1,-1880
   1154c:	baf1bc23          	sd	a5,-1096(gp) # a8a40 <p>
   11550:	941ff06f          	j	10e90 <crypt_main+0x3d8>
/home/user/new-os-test/testsuits-for-oskernel/libc-test/src/functional/crypt.c:37 (discriminator 1)
T("$2y$04$abcdefghijklmnopqrstuu8J3SjO9LQpndv9O3HW/e0PB1xKk.PJu",
   11554:	8a848793          	addi	a5,s1,-1880
   11558:	baf1bc23          	sd	a5,-1096(gp) # a8a40 <p>
   1155c:	97dff06f          	j	10ed8 <crypt_main+0x420>
/home/user/new-os-test/testsuits-for-oskernel/libc-test/src/functional/crypt.c:40 (discriminator 1)
T("$5$$3c2QQ0KjIU1OLtB29cl8Fplc2WN7X89bnoEjaR7tWu.", "$5$$", "")
   11560:	8a848493          	addi	s1,s1,-1880
   11564:	ba91bc23          	sd	s1,-1096(gp) # a8a40 <p>
   11568:	9bdff06f          	j	10f24 <crypt_main+0x46c>
/home/user/new-os-test/testsuits-for-oskernel/libc-test/src/functional/crypt.c:41 (discriminator 1)
T("$5$rounds=1234$abc0123456789$3VfDjPt05VHFn47C/ojFZ6KRPYrOjj1lLbH.dkF3bZ6", "$5$rounds=1234$abc0123456789$", "Xy01@#\x01\x02\x80\x7f\xff\r\n\x81\t !")
   1156c:	000537b7          	lui	a5,0x53
   11570:	8a878793          	addi	a5,a5,-1880 # 528a8 <CSWTCH.18+0xdf0>
   11574:	baf1bc23          	sd	a5,-1096(gp) # a8a40 <p>
   11578:	9f9ff06f          	j	10f70 <crypt_main+0x4b8>
/home/user/new-os-test/testsuits-for-oskernel/libc-test/src/functional/crypt.c:42 (discriminator 1)
T("$5$salt1234$1145V3OxW91Wl.LSS3pmBHvb2jV3ujiUhD7DgpoJtw9", "$5$salt1234$", "Aa@\xaa 0123456789")
   1157c:	000537b7          	lui	a5,0x53
   11580:	8a878793          	addi	a5,a5,-1880 # 528a8 <CSWTCH.18+0xdf0>
   11584:	baf1bc23          	sd	a5,-1096(gp) # a8a40 <p>
   11588:	a35ff06f          	j	10fbc <crypt_main+0x504>
/home/user/new-os-test/testsuits-for-oskernel/libc-test/src/functional/crypt.c:43 (discriminator 1)
T("$5$rounds=1000$$ZIwsx59lFMWVo3Yt6IxpZVn0IhpY8Yg4gxC21zUDBI4", "$5$rounds=1$", "a")
   1158c:	000537b7          	lui	a5,0x53
   11590:	8a878793          	addi	a5,a5,-1880 # 528a8 <CSWTCH.18+0xdf0>
   11594:	baf1bc23          	sd	a5,-1096(gp) # a8a40 <p>
   11598:	a75ff06f          	j	1100c <crypt_main+0x554>
/home/user/new-os-test/testsuits-for-oskernel/libc-test/src/functional/crypt.c:44 (discriminator 1)
T("$5$rounds=1234$$i.IiuqtWmTzupHAZtfV/PB33Usz.MwGHq9BKFAEj.B3", "$5$rounds=00001234$", "a")
   1159c:	000537b7          	lui	a5,0x53
   115a0:	8a878793          	addi	a5,a5,-1880 # 528a8 <CSWTCH.18+0xdf0>
   115a4:	baf1bc23          	sd	a5,-1096(gp) # a8a40 <p>
   115a8:	ab1ff06f          	j	11058 <crypt_main+0x5a0>
/home/user/new-os-test/testsuits-for-oskernel/libc-test/src/functional/crypt.c:55 (discriminator 1)
T("$5$saltstring$5B8vYYiY.CVt1RlTTf8KbXBH3hsxY/GNooZaBBGWEc5",
   115ac:	000537b7          	lui	a5,0x53
   115b0:	8a878793          	addi	a5,a5,-1880 # 528a8 <CSWTCH.18+0xdf0>
   115b4:	baf1bc23          	sd	a5,-1096(gp) # a8a40 <p>
   115b8:	af1ff06f          	j	110a8 <crypt_main+0x5f0>
/home/user/new-os-test/testsuits-for-oskernel/libc-test/src/functional/crypt.c:57 (discriminator 1)
T("$5$rounds=5000$toolongsaltstrin$Un/5jzAHMgOGZ5.mWJpuVolil07guHPvOW8mGRcvxa5",
   115bc:	000537b7          	lui	a5,0x53
   115c0:	8a878793          	addi	a5,a5,-1880 # 528a8 <CSWTCH.18+0xdf0>
   115c4:	baf1bc23          	sd	a5,-1096(gp) # a8a40 <p>
   115c8:	b31ff06f          	j	110f8 <crypt_main+0x640>
/home/user/new-os-test/testsuits-for-oskernel/libc-test/src/functional/crypt.c:59 (discriminator 1)
T("$5$rounds=1400$anotherlongsalts$Rx.j8H.h8HjEDGomFU8bDkXm3XIUnzyxf12oP84Bnq1",
   115cc:	000537b7          	lui	a5,0x53
   115d0:	8a878793          	addi	a5,a5,-1880 # 528a8 <CSWTCH.18+0xdf0>
   115d4:	baf1bc23          	sd	a5,-1096(gp) # a8a40 <p>
   115d8:	b71ff06f          	j	11148 <crypt_main+0x690>
/home/user/new-os-test/testsuits-for-oskernel/libc-test/src/functional/crypt.c:61 (discriminator 1)
T("$5$rounds=1000$roundstoolow$yfvwcWrQ8l/K0DAWyuPMDNHpIVlTQebY9l/gL972bIC",
   115dc:	000537b7          	lui	a5,0x53
   115e0:	8a878793          	addi	a5,a5,-1880 # 528a8 <CSWTCH.18+0xdf0>
   115e4:	baf1bc23          	sd	a5,-1096(gp) # a8a40 <p>
   115e8:	bb1ff06f          	j	11198 <crypt_main+0x6e0>
/home/user/new-os-test/testsuits-for-oskernel/libc-test/src/functional/crypt.c:71 (discriminator 1)
T("$6$$/chiBau24cE26QQVW3IfIe68Xu5.JQ4E8Ie7lcRLwqxO5cxGuBhqF2HmTL.zWJ9zjChg3yJYFXeGBQ2y3Ba1d1",
   115ec:	000537b7          	lui	a5,0x53
   115f0:	8a878793          	addi	a5,a5,-1880 # 528a8 <CSWTCH.18+0xdf0>
   115f4:	baf1bc23          	sd	a5,-1096(gp) # a8a40 <p>
   115f8:	bf1ff06f          	j	111e8 <crypt_main+0x730>
/home/user/new-os-test/testsuits-for-oskernel/libc-test/src/functional/crypt.c:73 (discriminator 1)
T("$6$rounds=1234$abc0123456789$BCpt8zLrc/RcyuXmCDOE1ALqMXB2MH6n1g891HhFj8.w7LxGv.FTkqq6Vxc/km3Y0jE0j24jY5PIv/oOu6reg1",
   115fc:	000537b7          	lui	a5,0x53
   11600:	8a878793          	addi	a5,a5,-1880 # 528a8 <CSWTCH.18+0xdf0>
   11604:	baf1bc23          	sd	a5,-1096(gp) # a8a40 <p>
   11608:	c31ff06f          	j	11238 <crypt_main+0x780>
/home/user/new-os-test/testsuits-for-oskernel/libc-test/src/functional/crypt.c:75 (discriminator 1)
T("$6$salt1234$44TYByJTJkEpcbmj8XzV6H7ltUN.7FUFFWKGeph85fMuAME8f1yQnXxqPbz6gfMq7tisOjTrxg3S2DDebWewt1",
   1160c:	000537b7          	lui	a5,0x53
   11610:	8a878793          	addi	a5,a5,-1880 # 528a8 <CSWTCH.18+0xdf0>
   11614:	baf1bc23          	sd	a5,-1096(gp) # a8a40 <p>
   11618:	c71ff06f          	j	11288 <crypt_main+0x7d0>
/home/user/new-os-test/testsuits-for-oskernel/libc-test/src/functional/crypt.c:77 (discriminator 1)
T("$6$rounds=1000$$hETGMQQ5sXu1md3PrmRCM4AxTgbNpYQaIhk4xQzvCiNfeogfCR9PZGSRXghUOxMAPFU2wuz/ZLafIHrHopO.60",
   1161c:	000537b7          	lui	a5,0x53
   11620:	8a878793          	addi	a5,a5,-1880 # 528a8 <CSWTCH.18+0xdf0>
   11624:	baf1bc23          	sd	a5,-1096(gp) # a8a40 <p>
   11628:	cadff06f          	j	112d4 <crypt_main+0x81c>
/home/user/new-os-test/testsuits-for-oskernel/libc-test/src/functional/crypt.c:79 (discriminator 1)
T("$6$rounds=1234$$.9spjeVb1fINMikxgAZEpur.ZQ/Gte./HuKWm2sAZ37eK3e1.ZdfRuatKdR/H..lKQfb2AB.RtHh7xKm.FE2J.",
   1162c:	000537b7          	lui	a5,0x53
   11630:	8a878793          	addi	a5,a5,-1880 # 528a8 <CSWTCH.18+0xdf0>
   11634:	baf1bc23          	sd	a5,-1096(gp) # a8a40 <p>
   11638:	ce9ff06f          	j	11320 <crypt_main+0x868>
/home/user/new-os-test/testsuits-for-oskernel/libc-test/src/functional/crypt.c:91 (discriminator 1)
T("$6$saltstring$svn8UoSVapNtMuq1ukKS4tPQd8iKwSMHWjl/O817G3uBnIFNjnQJuesI68u4OTLiBFdcbYEdFCoEOfaS35inz1",
   1163c:	000537b7          	lui	a5,0x53
   11640:	8a878793          	addi	a5,a5,-1880 # 528a8 <CSWTCH.18+0xdf0>
   11644:	baf1bc23          	sd	a5,-1096(gp) # a8a40 <p>
   11648:	d25ff06f          	j	1136c <crypt_main+0x8b4>
/home/user/new-os-test/testsuits-for-oskernel/libc-test/src/functional/crypt.c:93 (discriminator 1)
T("$6$rounds=5000$toolongsaltstrin$lQ8jolhgVRVhY4b5pZKaysCLi0QBxGoNeKQzQ3glMhwllF7oGDZxUhx1yxdYcz/e1JSbq3y6JMxxl8audkUEm0",
   1164c:	000537b7          	lui	a5,0x53
   11650:	8a878793          	addi	a5,a5,-1880 # 528a8 <CSWTCH.18+0xdf0>
   11654:	baf1bc23          	sd	a5,-1096(gp) # a8a40 <p>
   11658:	d61ff06f          	j	113b8 <crypt_main+0x900>
/home/user/new-os-test/testsuits-for-oskernel/libc-test/src/functional/crypt.c:95 (discriminator 1)
T("$6$rounds=1400$anotherlongsalts$POfYwTEok97VWcjxIiSOjiykti.o/pQs.wPvMxQ6Fm7I6IoYN3CmLs66x9t0oSwbtEW7o7UmJEiDwGqd8p4ur1",
   1165c:	000537b7          	lui	a5,0x53
   11660:	8a878793          	addi	a5,a5,-1880 # 528a8 <CSWTCH.18+0xdf0>
   11664:	baf1bc23          	sd	a5,-1096(gp) # a8a40 <p>
   11668:	d9dff06f          	j	11404 <crypt_main+0x94c>
/home/user/new-os-test/testsuits-for-oskernel/libc-test/src/functional/crypt.c:97 (discriminator 1)
T("$6$rounds=1000$roundstoolow$kUMsbe306n21p9R.FRkW3IGn.S9NPN0x50YhH1xhLsPuWGsUSklZt58jaTfF4ZEQpyUNGc0dqbpBYYBaHHrsX.",
   1166c:	000537b7          	lui	a5,0x53
   11670:	8a878793          	addi	a5,a5,-1880 # 528a8 <CSWTCH.18+0xdf0>
   11674:	baf1bc23          	sd	a5,-1096(gp) # a8a40 <p>
   11678:	dd9ff06f          	j	11450 <crypt_main+0x998>

000000000001167c <dirname_main>:
/home/user/new-os-test/testsuits-for-oskernel/libc-test/src/functional/dirname.c:15
	if (strcmp(want, got) != 0) \
		t_error("dirname(\"%s\") got \"%s\" want \"%s\"\n", path, got, want); \
}

int main()
{
   1167c:	f6010113          	addi	sp,sp,-160
/home/user/new-os-test/testsuits-for-oskernel/libc-test/src/functional/dirname.c:16
	if (strcmp(dirname(0), ".") != 0)
   11680:	00000513          	li	a0,0
/home/user/new-os-test/testsuits-for-oskernel/libc-test/src/functional/dirname.c:15
{
   11684:	08813823          	sd	s0,144(sp)
   11688:	08113c23          	sd	ra,152(sp)
   1168c:	08913423          	sd	s1,136(sp)
   11690:	09213023          	sd	s2,128(sp)
/home/user/new-os-test/testsuits-for-oskernel/libc-test/src/functional/dirname.c:16
	if (strcmp(dirname(0), ".") != 0)
   11694:	00052437          	lui	s0,0x52
   11698:	03c1e0ef          	jal	ra,2f6d4 <dirname>
   1169c:	d8840593          	addi	a1,s0,-632 # 51d88 <CSWTCH.18+0x2d0>
   116a0:	35d2d0ef          	jal	ra,3f1fc <strcmp>
   116a4:	00050e63          	beqz	a0,116c0 <dirname_main+0x44>
/home/user/new-os-test/testsuits-for-oskernel/libc-test/src/functional/dirname.c:17
		t_error("dirname(0) returned \"%s\"; expected \".\"\n", dirname(0));
   116a8:	00000513          	li	a0,0
   116ac:	0281e0ef          	jal	ra,2f6d4 <dirname>
   116b0:	00050593          	mv	a1,a0
   116b4:	00054537          	lui	a0,0x54
   116b8:	f4050513          	addi	a0,a0,-192 # 53f40 <CSWTCH.18+0x2488>
   116bc:	0b9160ef          	jal	ra,27f74 <t_printf>
/home/user/new-os-test/testsuits-for-oskernel/libc-test/src/functional/dirname.c:18
	T("", ".");
   116c0:	0006f4b7          	lui	s1,0x6f
   116c4:	cc848593          	addi	a1,s1,-824 # 6ecc8 <t+0x1758>
   116c8:	01810513          	addi	a0,sp,24
   116cc:	3552d0ef          	jal	ra,3f220 <strcpy>
   116d0:	0041e0ef          	jal	ra,2f6d4 <dirname>
   116d4:	00050593          	mv	a1,a0
   116d8:	00a13423          	sd	a0,8(sp)
   116dc:	d8840513          	addi	a0,s0,-632
   116e0:	31d2d0ef          	jal	ra,3f1fc <strcmp>
   116e4:	00813603          	ld	a2,8(sp)
   116e8:	00050c63          	beqz	a0,11700 <dirname_main+0x84>
/home/user/new-os-test/testsuits-for-oskernel/libc-test/src/functional/dirname.c:18 (discriminator 1)
   116ec:	00054537          	lui	a0,0x54
   116f0:	d8840693          	addi	a3,s0,-632
   116f4:	cc848593          	addi	a1,s1,-824
   116f8:	f8850513          	addi	a0,a0,-120 # 53f88 <CSWTCH.18+0x24d0>
   116fc:	079160ef          	jal	ra,27f74 <t_printf>
/home/user/new-os-test/testsuits-for-oskernel/libc-test/src/functional/dirname.c:19
	T("/usr/lib", "/usr");
   11700:	000524b7          	lui	s1,0x52
   11704:	e2048593          	addi	a1,s1,-480 # 51e20 <CSWTCH.18+0x368>
   11708:	01810513          	addi	a0,sp,24
   1170c:	3152d0ef          	jal	ra,3f220 <strcpy>
   11710:	7c51d0ef          	jal	ra,2f6d4 <dirname>
   11714:	00054937          	lui	s2,0x54
   11718:	00050593          	mv	a1,a0
   1171c:	00a13423          	sd	a0,8(sp)
   11720:	fc890513          	addi	a0,s2,-56 # 53fc8 <CSWTCH.18+0x2510>
   11724:	2d92d0ef          	jal	ra,3f1fc <strcmp>
   11728:	00813603          	ld	a2,8(sp)
   1172c:	00050c63          	beqz	a0,11744 <dirname_main+0xc8>
/home/user/new-os-test/testsuits-for-oskernel/libc-test/src/functional/dirname.c:19 (discriminator 1)
   11730:	00054537          	lui	a0,0x54
   11734:	fc890693          	addi	a3,s2,-56
   11738:	e2048593          	addi	a1,s1,-480
   1173c:	fd050513          	addi	a0,a0,-48 # 53fd0 <CSWTCH.18+0x2518>
   11740:	035160ef          	jal	ra,27f74 <t_printf>
/home/user/new-os-test/testsuits-for-oskernel/libc-test/src/functional/dirname.c:20
	T("/usr/", "/");
   11744:	00052937          	lui	s2,0x52
   11748:	e8090593          	addi	a1,s2,-384 # 51e80 <CSWTCH.18+0x3c8>
   1174c:	01810513          	addi	a0,sp,24
   11750:	2d12d0ef          	jal	ra,3f220 <strcpy>
   11754:	7811d0ef          	jal	ra,2f6d4 <dirname>
   11758:	0009f4b7          	lui	s1,0x9f
   1175c:	00050593          	mv	a1,a0
   11760:	00a13423          	sd	a0,8(sp)
   11764:	77848513          	addi	a0,s1,1912 # 9f778 <__pow_log_data+0x1050>
   11768:	2952d0ef          	jal	ra,3f1fc <strcmp>
   1176c:	00813603          	ld	a2,8(sp)
   11770:	00050c63          	beqz	a0,11788 <dirname_main+0x10c>
/home/user/new-os-test/testsuits-for-oskernel/libc-test/src/functional/dirname.c:20 (discriminator 1)
   11774:	00054537          	lui	a0,0x54
   11778:	77848693          	addi	a3,s1,1912
   1177c:	e8090593          	addi	a1,s2,-384
   11780:	01050513          	addi	a0,a0,16 # 54010 <CSWTCH.18+0x2558>
   11784:	7f0160ef          	jal	ra,27f74 <t_printf>
/home/user/new-os-test/testsuits-for-oskernel/libc-test/src/functional/dirname.c:21
	T("usr", ".");
   11788:	00052937          	lui	s2,0x52
   1178c:	e8890593          	addi	a1,s2,-376 # 51e88 <CSWTCH.18+0x3d0>
   11790:	01810513          	addi	a0,sp,24
   11794:	28d2d0ef          	jal	ra,3f220 <strcpy>
   11798:	73d1d0ef          	jal	ra,2f6d4 <dirname>
   1179c:	00050593          	mv	a1,a0
   117a0:	00a13423          	sd	a0,8(sp)
   117a4:	d8840513          	addi	a0,s0,-632
   117a8:	2552d0ef          	jal	ra,3f1fc <strcmp>
   117ac:	00813603          	ld	a2,8(sp)
   117b0:	00050c63          	beqz	a0,117c8 <dirname_main+0x14c>
/home/user/new-os-test/testsuits-for-oskernel/libc-test/src/functional/dirname.c:21 (discriminator 1)
   117b4:	00054537          	lui	a0,0x54
   117b8:	d8840693          	addi	a3,s0,-632
   117bc:	e8890593          	addi	a1,s2,-376
   117c0:	05050513          	addi	a0,a0,80 # 54050 <CSWTCH.18+0x2598>
   117c4:	7b0160ef          	jal	ra,27f74 <t_printf>
/home/user/new-os-test/testsuits-for-oskernel/libc-test/src/functional/dirname.c:22
	T("usr/", ".");
   117c8:	00052937          	lui	s2,0x52
   117cc:	ed890593          	addi	a1,s2,-296 # 51ed8 <CSWTCH.18+0x420>
   117d0:	01810513          	addi	a0,sp,24
   117d4:	24d2d0ef          	jal	ra,3f220 <strcpy>
   117d8:	6fd1d0ef          	jal	ra,2f6d4 <dirname>
   117dc:	00050593          	mv	a1,a0
   117e0:	00a13423          	sd	a0,8(sp)
   117e4:	d8840513          	addi	a0,s0,-632
   117e8:	2152d0ef          	jal	ra,3f1fc <strcmp>
   117ec:	00813603          	ld	a2,8(sp)
   117f0:	00050c63          	beqz	a0,11808 <dirname_main+0x18c>
/home/user/new-os-test/testsuits-for-oskernel/libc-test/src/functional/dirname.c:22 (discriminator 1)
   117f4:	00054537          	lui	a0,0x54
   117f8:	d8840693          	addi	a3,s0,-632
   117fc:	ed890593          	addi	a1,s2,-296
   11800:	09050513          	addi	a0,a0,144 # 54090 <CSWTCH.18+0x25d8>
   11804:	770160ef          	jal	ra,27f74 <t_printf>
/home/user/new-os-test/testsuits-for-oskernel/libc-test/src/functional/dirname.c:23
	T("/", "/");
   11808:	77848593          	addi	a1,s1,1912
   1180c:	01810513          	addi	a0,sp,24
   11810:	2112d0ef          	jal	ra,3f220 <strcpy>
   11814:	6c11d0ef          	jal	ra,2f6d4 <dirname>
   11818:	00050593          	mv	a1,a0
   1181c:	00a13423          	sd	a0,8(sp)
   11820:	77848513          	addi	a0,s1,1912
   11824:	1d92d0ef          	jal	ra,3f1fc <strcmp>
   11828:	00813603          	ld	a2,8(sp)
   1182c:	00050c63          	beqz	a0,11844 <dirname_main+0x1c8>
/home/user/new-os-test/testsuits-for-oskernel/libc-test/src/functional/dirname.c:23 (discriminator 1)
   11830:	00054537          	lui	a0,0x54
   11834:	77848693          	addi	a3,s1,1912
   11838:	77848593          	addi	a1,s1,1912
   1183c:	0d050513          	addi	a0,a0,208 # 540d0 <CSWTCH.18+0x2618>
   11840:	734160ef          	jal	ra,27f74 <t_printf>
/home/user/new-os-test/testsuits-for-oskernel/libc-test/src/functional/dirname.c:24
	T("///", "/");
   11844:	00052937          	lui	s2,0x52
   11848:	f7090593          	addi	a1,s2,-144 # 51f70 <CSWTCH.18+0x4b8>
   1184c:	01810513          	addi	a0,sp,24
   11850:	1d12d0ef          	jal	ra,3f220 <strcpy>
   11854:	6811d0ef          	jal	ra,2f6d4 <dirname>
   11858:	00050593          	mv	a1,a0
   1185c:	00a13423          	sd	a0,8(sp)
   11860:	77848513          	addi	a0,s1,1912
   11864:	1992d0ef          	jal	ra,3f1fc <strcmp>
   11868:	00813603          	ld	a2,8(sp)
   1186c:	00050c63          	beqz	a0,11884 <dirname_main+0x208>
/home/user/new-os-test/testsuits-for-oskernel/libc-test/src/functional/dirname.c:24 (discriminator 1)
   11870:	00054537          	lui	a0,0x54
   11874:	77848693          	addi	a3,s1,1912
   11878:	f7090593          	addi	a1,s2,-144
   1187c:	11050513          	addi	a0,a0,272 # 54110 <CSWTCH.18+0x2658>
   11880:	6f4160ef          	jal	ra,27f74 <t_printf>
/home/user/new-os-test/testsuits-for-oskernel/libc-test/src/functional/dirname.c:25
	T(".", ".");
   11884:	d8840593          	addi	a1,s0,-632
   11888:	01810513          	addi	a0,sp,24
   1188c:	1952d0ef          	jal	ra,3f220 <strcpy>
   11890:	6451d0ef          	jal	ra,2f6d4 <dirname>
   11894:	00050593          	mv	a1,a0
   11898:	00a13423          	sd	a0,8(sp)
   1189c:	d8840513          	addi	a0,s0,-632
   118a0:	15d2d0ef          	jal	ra,3f1fc <strcmp>
   118a4:	00813603          	ld	a2,8(sp)
   118a8:	00050c63          	beqz	a0,118c0 <dirname_main+0x244>
/home/user/new-os-test/testsuits-for-oskernel/libc-test/src/functional/dirname.c:25 (discriminator 1)
   118ac:	00054537          	lui	a0,0x54
   118b0:	d8840693          	addi	a3,s0,-632
   118b4:	d8840593          	addi	a1,s0,-632
   118b8:	15050513          	addi	a0,a0,336 # 54150 <CSWTCH.18+0x2698>
   118bc:	6b8160ef          	jal	ra,27f74 <t_printf>
/home/user/new-os-test/testsuits-for-oskernel/libc-test/src/functional/dirname.c:26
	T("..", ".");
   118c0:	000534b7          	lui	s1,0x53
   118c4:	a8048593          	addi	a1,s1,-1408 # 52a80 <CSWTCH.18+0xfc8>
   118c8:	01810513          	addi	a0,sp,24
   118cc:	1552d0ef          	jal	ra,3f220 <strcpy>
   118d0:	6051d0ef          	jal	ra,2f6d4 <dirname>
   118d4:	00050593          	mv	a1,a0
   118d8:	00a13423          	sd	a0,8(sp)
   118dc:	d8840513          	addi	a0,s0,-632
   118e0:	11d2d0ef          	jal	ra,3f1fc <strcmp>
   118e4:	00813603          	ld	a2,8(sp)
   118e8:	00050c63          	beqz	a0,11900 <dirname_main+0x284>
/home/user/new-os-test/testsuits-for-oskernel/libc-test/src/functional/dirname.c:26 (discriminator 1)
   118ec:	00054537          	lui	a0,0x54
   118f0:	d8840693          	addi	a3,s0,-632
   118f4:	a8048593          	addi	a1,s1,-1408
   118f8:	19050513          	addi	a0,a0,400 # 54190 <CSWTCH.18+0x26d8>
   118fc:	678160ef          	jal	ra,27f74 <t_printf>
/home/user/new-os-test/testsuits-for-oskernel/libc-test/src/functional/dirname.c:27
	return t_status;
   11900:	bb01a503          	lw	a0,-1104(gp) # a8a38 <_edata>
/home/user/new-os-test/testsuits-for-oskernel/libc-test/src/functional/dirname.c:28
}
   11904:	09813083          	ld	ra,152(sp)
   11908:	09013403          	ld	s0,144(sp)
   1190c:	08813483          	ld	s1,136(sp)
   11910:	08013903          	ld	s2,128(sp)
   11914:	0005051b          	sext.w	a0,a0
   11918:	0a010113          	addi	sp,sp,160
   1191c:	00008067          	ret

0000000000011920 <env_main>:
/home/user/new-os-test/testsuits-for-oskernel/libc-test/src/functional/env.c:13
#include "test.h"

extern char **environ;

int main()
{
   11920:	fc010113          	addi	sp,sp,-64
   11924:	03213023          	sd	s2,32(sp)
/home/user/new-os-test/testsuits-for-oskernel/libc-test/src/functional/env.c:17
	char *s;
	int r;

	if (!environ)
   11928:	c481b783          	ld	a5,-952(gp) # a8ad0 <__environ>
/home/user/new-os-test/testsuits-for-oskernel/libc-test/src/functional/env.c:13
{
   1192c:	02113c23          	sd	ra,56(sp)
   11930:	02813823          	sd	s0,48(sp)
   11934:	02913423          	sd	s1,40(sp)
   11938:	01313c23          	sd	s3,24(sp)
   1193c:	01413823          	sd	s4,16(sp)
/home/user/new-os-test/testsuits-for-oskernel/libc-test/src/functional/env.c:17
	if (!environ)
   11940:	00079863          	bnez	a5,11950 <env_main+0x30>
/home/user/new-os-test/testsuits-for-oskernel/libc-test/src/functional/env.c:18
		t_error("environ is NULL\n");
   11944:	00054537          	lui	a0,0x54
   11948:	1d050513          	addi	a0,a0,464 # 541d0 <CSWTCH.18+0x2718>
   1194c:	628160ef          	jal	ra,27f74 <t_printf>
/home/user/new-os-test/testsuits-for-oskernel/libc-test/src/functional/env.c:19
	if (clearenv() || (environ && *environ))
   11950:	5311a0ef          	jal	ra,2c680 <clearenv>
   11954:	00051a63          	bnez	a0,11968 <env_main+0x48>
/home/user/new-os-test/testsuits-for-oskernel/libc-test/src/functional/env.c:19 (discriminator 1)
   11958:	c481b783          	ld	a5,-952(gp) # a8ad0 <__environ>
   1195c:	02078463          	beqz	a5,11984 <env_main+0x64>
/home/user/new-os-test/testsuits-for-oskernel/libc-test/src/functional/env.c:19 (discriminator 2)
   11960:	0007b783          	ld	a5,0(a5)
   11964:	02078063          	beqz	a5,11984 <env_main+0x64>
/home/user/new-os-test/testsuits-for-oskernel/libc-test/src/functional/env.c:20
		t_error("clrearenv: %s\n", strerror(errno));
   11968:	2181b0ef          	jal	ra,2cb80 <__errno_location>
   1196c:	00052503          	lw	a0,0(a0)
   11970:	2681b0ef          	jal	ra,2cbd8 <strerror>
   11974:	00050593          	mv	a1,a0
   11978:	00054537          	lui	a0,0x54
   1197c:	20050513          	addi	a0,a0,512 # 54200 <CSWTCH.18+0x2748>
   11980:	5f4160ef          	jal	ra,27f74 <t_printf>
/home/user/new-os-test/testsuits-for-oskernel/libc-test/src/functional/env.c:21
	if (putenv("TEST=1"))
   11984:	000544b7          	lui	s1,0x54
   11988:	22848513          	addi	a0,s1,552 # 54228 <CSWTCH.18+0x2770>
   1198c:	6fd1a0ef          	jal	ra,2c888 <putenv>
   11990:	00050993          	mv	s3,a0
/home/user/new-os-test/testsuits-for-oskernel/libc-test/src/functional/env.c:20
		t_error("clrearenv: %s\n", strerror(errno));
   11994:	1ec1b0ef          	jal	ra,2cb80 <__errno_location>
   11998:	00050413          	mv	s0,a0
/home/user/new-os-test/testsuits-for-oskernel/libc-test/src/functional/env.c:21
	if (putenv("TEST=1"))
   1199c:	00098e63          	beqz	s3,119b8 <env_main+0x98>
/home/user/new-os-test/testsuits-for-oskernel/libc-test/src/functional/env.c:22
		t_error("putenv: %s\n", strerror(errno));
   119a0:	00052503          	lw	a0,0(a0)
   119a4:	2341b0ef          	jal	ra,2cbd8 <strerror>
   119a8:	00050593          	mv	a1,a0
   119ac:	00054537          	lui	a0,0x54
   119b0:	23050513          	addi	a0,a0,560 # 54230 <CSWTCH.18+0x2778>
   119b4:	5c0160ef          	jal	ra,27f74 <t_printf>
/home/user/new-os-test/testsuits-for-oskernel/libc-test/src/functional/env.c:23
	if (strcmp(environ[0],"TEST=1") != 0)
   119b8:	c481b783          	ld	a5,-952(gp) # a8ad0 <__environ>
   119bc:	22848593          	addi	a1,s1,552
   119c0:	0007b503          	ld	a0,0(a5)
   119c4:	0392d0ef          	jal	ra,3f1fc <strcmp>
   119c8:	00050c63          	beqz	a0,119e0 <env_main+0xc0>
/home/user/new-os-test/testsuits-for-oskernel/libc-test/src/functional/env.c:24
		t_error("putenv failed: environ[0]: %s, wanted \"TEST=1\"\n", environ[0]);
   119cc:	c481b783          	ld	a5,-952(gp) # a8ad0 <__environ>
   119d0:	00054537          	lui	a0,0x54
   119d4:	25850513          	addi	a0,a0,600 # 54258 <CSWTCH.18+0x27a0>
   119d8:	0007b583          	ld	a1,0(a5)
   119dc:	598160ef          	jal	ra,27f74 <t_printf>
/home/user/new-os-test/testsuits-for-oskernel/libc-test/src/functional/env.c:25
	if ((s=environ[1]))
   119e0:	c481b783          	ld	a5,-952(gp) # a8ad0 <__environ>
   119e4:	0087b583          	ld	a1,8(a5)
   119e8:	00058863          	beqz	a1,119f8 <env_main+0xd8>
/home/user/new-os-test/testsuits-for-oskernel/libc-test/src/functional/env.c:26
		t_error("environ[1]: %p, wanted 0\n", s);
   119ec:	00054537          	lui	a0,0x54
   119f0:	2a850513          	addi	a0,a0,680 # 542a8 <CSWTCH.18+0x27f0>
   119f4:	580160ef          	jal	ra,27f74 <t_printf>
/home/user/new-os-test/testsuits-for-oskernel/libc-test/src/functional/env.c:27
	if (!(s=getenv("TEST")))
   119f8:	000544b7          	lui	s1,0x54
   119fc:	2e048513          	addi	a0,s1,736 # 542e0 <CSWTCH.18+0x2828>
   11a00:	4c51a0ef          	jal	ra,2c6c4 <getenv>
   11a04:	00050993          	mv	s3,a0
   11a08:	00051863          	bnez	a0,11a18 <env_main+0xf8>
/home/user/new-os-test/testsuits-for-oskernel/libc-test/src/functional/env.c:28
		t_error("getenv(\"TEST\"): 0, wanted \"1\"\n");
   11a0c:	00054537          	lui	a0,0x54
   11a10:	2e850513          	addi	a0,a0,744 # 542e8 <CSWTCH.18+0x2830>
   11a14:	560160ef          	jal	ra,27f74 <t_printf>
/home/user/new-os-test/testsuits-for-oskernel/libc-test/src/functional/env.c:29
	if (strcmp(s,"1") != 0)
   11a18:	000555b7          	lui	a1,0x55
   11a1c:	83858593          	addi	a1,a1,-1992 # 54838 <CSWTCH.18+0x2d80>
   11a20:	00098513          	mv	a0,s3
   11a24:	7d82d0ef          	jal	ra,3f1fc <strcmp>
   11a28:	00050a63          	beqz	a0,11a3c <env_main+0x11c>
/home/user/new-os-test/testsuits-for-oskernel/libc-test/src/functional/env.c:30
		t_error("getenv(\"TEST\"): \"%s\", wanted \"1\"\n", s);
   11a2c:	00054537          	lui	a0,0x54
   11a30:	00098593          	mv	a1,s3
   11a34:	32050513          	addi	a0,a0,800 # 54320 <CSWTCH.18+0x2868>
   11a38:	53c160ef          	jal	ra,27f74 <t_printf>
/home/user/new-os-test/testsuits-for-oskernel/libc-test/src/functional/env.c:31
	if (unsetenv("TEST"))
   11a3c:	2e048513          	addi	a0,s1,736
   11a40:	0641b0ef          	jal	ra,2caa4 <unsetenv>
   11a44:	00050e63          	beqz	a0,11a60 <env_main+0x140>
/home/user/new-os-test/testsuits-for-oskernel/libc-test/src/functional/env.c:32
		t_error("unsetenv: %s\n", strerror(errno));
   11a48:	00042503          	lw	a0,0(s0)
   11a4c:	18c1b0ef          	jal	ra,2cbd8 <strerror>
   11a50:	00050593          	mv	a1,a0
   11a54:	00054537          	lui	a0,0x54
   11a58:	36050513          	addi	a0,a0,864 # 54360 <CSWTCH.18+0x28a8>
   11a5c:	518160ef          	jal	ra,27f74 <t_printf>
/home/user/new-os-test/testsuits-for-oskernel/libc-test/src/functional/env.c:33
	if ((s=*environ))
   11a60:	c481b783          	ld	a5,-952(gp) # a8ad0 <__environ>
   11a64:	0007b583          	ld	a1,0(a5)
   11a68:	00058863          	beqz	a1,11a78 <env_main+0x158>
/home/user/new-os-test/testsuits-for-oskernel/libc-test/src/functional/env.c:34
		t_error("*environ: %p != 0\n", s);
   11a6c:	00054537          	lui	a0,0x54
   11a70:	38850513          	addi	a0,a0,904 # 54388 <CSWTCH.18+0x28d0>
   11a74:	500160ef          	jal	ra,27f74 <t_printf>
/home/user/new-os-test/testsuits-for-oskernel/libc-test/src/functional/env.c:35
	if ((s=getenv("TEST")))
   11a78:	2e048513          	addi	a0,s1,736
   11a7c:	4491a0ef          	jal	ra,2c6c4 <getenv>
   11a80:	00050593          	mv	a1,a0
   11a84:	00050863          	beqz	a0,11a94 <env_main+0x174>
/home/user/new-os-test/testsuits-for-oskernel/libc-test/src/functional/env.c:36
		t_error("getenv(\"TEST\"): %p, wanted 0\n", s);
   11a88:	00054537          	lui	a0,0x54
   11a8c:	3b850513          	addi	a0,a0,952 # 543b8 <CSWTCH.18+0x2900>
   11a90:	4e4160ef          	jal	ra,27f74 <t_printf>
/home/user/new-os-test/testsuits-for-oskernel/libc-test/src/functional/env.c:38
	errno = 0;
	if (setenv("TEST", "2", 0))
   11a94:	000549b7          	lui	s3,0x54
/home/user/new-os-test/testsuits-for-oskernel/libc-test/src/functional/env.c:37
	errno = 0;
   11a98:	00042023          	sw	zero,0(s0)
/home/user/new-os-test/testsuits-for-oskernel/libc-test/src/functional/env.c:38
	if (setenv("TEST", "2", 0))
   11a9c:	00000613          	li	a2,0
   11aa0:	3f098593          	addi	a1,s3,1008 # 543f0 <CSWTCH.18+0x2938>
   11aa4:	2e048513          	addi	a0,s1,736
   11aa8:	6f51a0ef          	jal	ra,2c99c <setenv>
   11aac:	00050e63          	beqz	a0,11ac8 <env_main+0x1a8>
/home/user/new-os-test/testsuits-for-oskernel/libc-test/src/functional/env.c:39
		t_error("setenv: %s\n", strerror(errno));
   11ab0:	00042503          	lw	a0,0(s0)
   11ab4:	1241b0ef          	jal	ra,2cbd8 <strerror>
   11ab8:	00050593          	mv	a1,a0
   11abc:	00054537          	lui	a0,0x54
   11ac0:	3f850513          	addi	a0,a0,1016 # 543f8 <CSWTCH.18+0x2940>
   11ac4:	4b0160ef          	jal	ra,27f74 <t_printf>
/home/user/new-os-test/testsuits-for-oskernel/libc-test/src/functional/env.c:40
	if (strcmp(s=getenv("TEST"),"2") != 0)
   11ac8:	2e048513          	addi	a0,s1,736
   11acc:	3f91a0ef          	jal	ra,2c6c4 <getenv>
   11ad0:	3f098593          	addi	a1,s3,1008
   11ad4:	00050a13          	mv	s4,a0
   11ad8:	7242d0ef          	jal	ra,3f1fc <strcmp>
   11adc:	00050a63          	beqz	a0,11af0 <env_main+0x1d0>
/home/user/new-os-test/testsuits-for-oskernel/libc-test/src/functional/env.c:41
		t_error("getenv(\"TEST\"): \"%s\", wanted \"2\"\n", s);
   11ae0:	00054537          	lui	a0,0x54
   11ae4:	000a0593          	mv	a1,s4
   11ae8:	42050513          	addi	a0,a0,1056 # 54420 <CSWTCH.18+0x2968>
   11aec:	488160ef          	jal	ra,27f74 <t_printf>
/home/user/new-os-test/testsuits-for-oskernel/libc-test/src/functional/env.c:42
	if (strcmp(environ[0], "TEST=2") != 0)
   11af0:	c481b783          	ld	a5,-952(gp) # a8ad0 <__environ>
   11af4:	000545b7          	lui	a1,0x54
   11af8:	46058593          	addi	a1,a1,1120 # 54460 <CSWTCH.18+0x29a8>
   11afc:	0007b503          	ld	a0,0(a5)
   11b00:	6fc2d0ef          	jal	ra,3f1fc <strcmp>
   11b04:	00050c63          	beqz	a0,11b1c <env_main+0x1fc>
/home/user/new-os-test/testsuits-for-oskernel/libc-test/src/functional/env.c:43
		t_error("setenv failed: environ[0]: %s, wanted \"TEST=2\"\n", environ[0]);
   11b08:	c481b783          	ld	a5,-952(gp) # a8ad0 <__environ>
   11b0c:	00054537          	lui	a0,0x54
   11b10:	46850513          	addi	a0,a0,1128 # 54468 <CSWTCH.18+0x29b0>
   11b14:	0007b583          	ld	a1,0(a5)
   11b18:	45c160ef          	jal	ra,27f74 <t_printf>
/home/user/new-os-test/testsuits-for-oskernel/libc-test/src/functional/env.c:45
	errno = 0;
	if (setenv("TEST", "3", 0))
   11b1c:	00058937          	lui	s2,0x58
/home/user/new-os-test/testsuits-for-oskernel/libc-test/src/functional/env.c:44
	errno = 0;
   11b20:	00042023          	sw	zero,0(s0)
/home/user/new-os-test/testsuits-for-oskernel/libc-test/src/functional/env.c:45
	if (setenv("TEST", "3", 0))
   11b24:	00000613          	li	a2,0
   11b28:	e0090593          	addi	a1,s2,-512 # 57e00 <CSWTCH.18+0x6348>
   11b2c:	2e048513          	addi	a0,s1,736
   11b30:	66d1a0ef          	jal	ra,2c99c <setenv>
   11b34:	00050e63          	beqz	a0,11b50 <env_main+0x230>
/home/user/new-os-test/testsuits-for-oskernel/libc-test/src/functional/env.c:46
		t_error("setenv: %s\n", strerror(errno));
   11b38:	00042503          	lw	a0,0(s0)
   11b3c:	09c1b0ef          	jal	ra,2cbd8 <strerror>
   11b40:	00050593          	mv	a1,a0
   11b44:	00054537          	lui	a0,0x54
   11b48:	4b850513          	addi	a0,a0,1208 # 544b8 <CSWTCH.18+0x2a00>
   11b4c:	428160ef          	jal	ra,27f74 <t_printf>
/home/user/new-os-test/testsuits-for-oskernel/libc-test/src/functional/env.c:47
	if (strcmp(s=getenv("TEST"),"2") != 0)
   11b50:	2e048513          	addi	a0,s1,736
   11b54:	3711a0ef          	jal	ra,2c6c4 <getenv>
   11b58:	3f098593          	addi	a1,s3,1008
   11b5c:	00050a13          	mv	s4,a0
   11b60:	69c2d0ef          	jal	ra,3f1fc <strcmp>
   11b64:	00050a63          	beqz	a0,11b78 <env_main+0x258>
/home/user/new-os-test/testsuits-for-oskernel/libc-test/src/functional/env.c:48
		t_error("getenv(\"TEST\"): \"%s\", wanted \"2\"\n", s);
   11b68:	00054537          	lui	a0,0x54
   11b6c:	000a0593          	mv	a1,s4
   11b70:	4e050513          	addi	a0,a0,1248 # 544e0 <CSWTCH.18+0x2a28>
   11b74:	400160ef          	jal	ra,27f74 <t_printf>
/home/user/new-os-test/testsuits-for-oskernel/libc-test/src/functional/env.c:49
	errno = 0;
   11b78:	00042023          	sw	zero,0(s0)
/home/user/new-os-test/testsuits-for-oskernel/libc-test/src/functional/env.c:50
	if (setenv("TEST", "3", 1))
   11b7c:	00100613          	li	a2,1
   11b80:	e0090593          	addi	a1,s2,-512
   11b84:	2e048513          	addi	a0,s1,736
   11b88:	6151a0ef          	jal	ra,2c99c <setenv>
   11b8c:	00050e63          	beqz	a0,11ba8 <env_main+0x288>
/home/user/new-os-test/testsuits-for-oskernel/libc-test/src/functional/env.c:51
		t_error("setenv: %s\n", strerror(errno));
   11b90:	00042503          	lw	a0,0(s0)
   11b94:	0441b0ef          	jal	ra,2cbd8 <strerror>
   11b98:	00050593          	mv	a1,a0
   11b9c:	00054537          	lui	a0,0x54
   11ba0:	52050513          	addi	a0,a0,1312 # 54520 <CSWTCH.18+0x2a68>
   11ba4:	3d0160ef          	jal	ra,27f74 <t_printf>
/home/user/new-os-test/testsuits-for-oskernel/libc-test/src/functional/env.c:52
	if (strcmp(s=getenv("TEST"),"3") != 0)
   11ba8:	2e048513          	addi	a0,s1,736
   11bac:	3191a0ef          	jal	ra,2c6c4 <getenv>
   11bb0:	e0090593          	addi	a1,s2,-512
   11bb4:	00050493          	mv	s1,a0
   11bb8:	6442d0ef          	jal	ra,3f1fc <strcmp>
   11bbc:	00050a63          	beqz	a0,11bd0 <env_main+0x2b0>
/home/user/new-os-test/testsuits-for-oskernel/libc-test/src/functional/env.c:53
		t_error("getenv(\"TEST\"): \"%s\", wanted \"3\"\n", s);
   11bc0:	00054537          	lui	a0,0x54
   11bc4:	00048593          	mv	a1,s1
   11bc8:	54850513          	addi	a0,a0,1352 # 54548 <CSWTCH.18+0x2a90>
   11bcc:	3a8160ef          	jal	ra,27f74 <t_printf>
/home/user/new-os-test/testsuits-for-oskernel/libc-test/src/functional/env.c:56
	/* test failures */
	errno = 0;
	if ((r=setenv("","",0)) != -1 || errno != EINVAL)
   11bd0:	0006f537          	lui	a0,0x6f
   11bd4:	cc850593          	addi	a1,a0,-824 # 6ecc8 <t+0x1758>
/home/user/new-os-test/testsuits-for-oskernel/libc-test/src/functional/env.c:55
	errno = 0;
   11bd8:	00042023          	sw	zero,0(s0)
/home/user/new-os-test/testsuits-for-oskernel/libc-test/src/functional/env.c:56
	if ((r=setenv("","",0)) != -1 || errno != EINVAL)
   11bdc:	00000613          	li	a2,0
   11be0:	cc850513          	addi	a0,a0,-824
   11be4:	5b91a0ef          	jal	ra,2c99c <setenv>
   11be8:	fff00793          	li	a5,-1
   11bec:	00050593          	mv	a1,a0
   11bf0:	00f51863          	bne	a0,a5,11c00 <env_main+0x2e0>
/home/user/new-os-test/testsuits-for-oskernel/libc-test/src/functional/env.c:56 (discriminator 1)
   11bf4:	00042703          	lw	a4,0(s0)
   11bf8:	01600793          	li	a5,22
   11bfc:	02f70a63          	beq	a4,a5,11c30 <env_main+0x310>
/home/user/new-os-test/testsuits-for-oskernel/libc-test/src/functional/env.c:57
		t_error("setenv(\"\",\"\",0): %d, errno: %d (%s), wanted -1, %d (EINVAL)\n", r, errno, strerror(errno), EINVAL);
   11c00:	00042603          	lw	a2,0(s0)
   11c04:	00b13423          	sd	a1,8(sp)
   11c08:	00060513          	mv	a0,a2
   11c0c:	00c13023          	sd	a2,0(sp)
   11c10:	7c91a0ef          	jal	ra,2cbd8 <strerror>
   11c14:	00013603          	ld	a2,0(sp)
   11c18:	00813583          	ld	a1,8(sp)
   11c1c:	00050693          	mv	a3,a0
   11c20:	00054537          	lui	a0,0x54
   11c24:	01600713          	li	a4,22
   11c28:	58850513          	addi	a0,a0,1416 # 54588 <CSWTCH.18+0x2ad0>
   11c2c:	348160ef          	jal	ra,27f74 <t_printf>
/home/user/new-os-test/testsuits-for-oskernel/libc-test/src/functional/env.c:58
	return t_status;
   11c30:	bb01a503          	lw	a0,-1104(gp) # a8a38 <_edata>
/home/user/new-os-test/testsuits-for-oskernel/libc-test/src/functional/env.c:59
}
   11c34:	03813083          	ld	ra,56(sp)
   11c38:	03013403          	ld	s0,48(sp)
   11c3c:	02813483          	ld	s1,40(sp)
   11c40:	02013903          	ld	s2,32(sp)
   11c44:	01813983          	ld	s3,24(sp)
   11c48:	01013a03          	ld	s4,16(sp)
   11c4c:	0005051b          	sext.w	a0,a0
   11c50:	04010113          	addi	sp,sp,64
   11c54:	00008067          	ret

0000000000011c58 <fdopen_main>:
/home/user/new-os-test/testsuits-for-oskernel/libc-test/src/functional/fdopen.c:15
	if (!(c)) \
		t_error("%s failed (errno = %d)\n", #c, errno); \
} while(0)

int main(void)
{
   11c58:	fb010113          	addi	sp,sp,-80
/home/user/new-os-test/testsuits-for-oskernel/libc-test/src/functional/fdopen.c:16
	char tmp[] = "/tmp/testsuite-XXXXXX";
   11c5c:	000555b7          	lui	a1,0x55
   11c60:	01600613          	li	a2,22
   11c64:	87858593          	addi	a1,a1,-1928 # 54878 <CSWTCH.18+0x2dc0>
   11c68:	00810513          	addi	a0,sp,8
/home/user/new-os-test/testsuits-for-oskernel/libc-test/src/functional/fdopen.c:15
{
   11c6c:	04113423          	sd	ra,72(sp)
   11c70:	04813023          	sd	s0,64(sp)
   11c74:	02913c23          	sd	s1,56(sp)
   11c78:	03213823          	sd	s2,48(sp)
   11c7c:	03313423          	sd	s3,40(sp)
/home/user/new-os-test/testsuits-for-oskernel/libc-test/src/functional/fdopen.c:16
	char tmp[] = "/tmp/testsuite-XXXXXX";
   11c80:	0f52c0ef          	jal	ra,3e574 <memcpy>
/home/user/new-os-test/testsuits-for-oskernel/libc-test/src/functional/fdopen.c:21
	char foo[6];
	int fd;
	FILE *f;

	TEST((fd = mkstemp(tmp)) > 2);
   11c84:	6fd1a0ef          	jal	ra,2cb80 <__errno_location>
   11c88:	00052023          	sw	zero,0(a0)
   11c8c:	00050413          	mv	s0,a0
   11c90:	00810513          	addi	a0,sp,8
   11c94:	6942e0ef          	jal	ra,40328 <mkstemp>
   11c98:	00200793          	li	a5,2
   11c9c:	00050493          	mv	s1,a0
   11ca0:	00a7ce63          	blt	a5,a0,11cbc <fdopen_main+0x64>
/home/user/new-os-test/testsuits-for-oskernel/libc-test/src/functional/fdopen.c:21 (discriminator 1)
   11ca4:	00042603          	lw	a2,0(s0)
   11ca8:	000545b7          	lui	a1,0x54
   11cac:	00054537          	lui	a0,0x54
   11cb0:	5e058593          	addi	a1,a1,1504 # 545e0 <CSWTCH.18+0x2b28>
   11cb4:	5f850513          	addi	a0,a0,1528 # 545f8 <CSWTCH.18+0x2b40>
   11cb8:	2bc160ef          	jal	ra,27f74 <t_printf>
/home/user/new-os-test/testsuits-for-oskernel/libc-test/src/functional/fdopen.c:22 (discriminator 3)
	TEST(write(fd, "hello", 6)==6);
   11cbc:	000549b7          	lui	s3,0x54
   11cc0:	00042023          	sw	zero,0(s0)
   11cc4:	00600613          	li	a2,6
   11cc8:	63098593          	addi	a1,s3,1584 # 54630 <CSWTCH.18+0x2b78>
   11ccc:	00048513          	mv	a0,s1
   11cd0:	4dd330ef          	jal	ra,459ac <write>
   11cd4:	00600793          	li	a5,6
   11cd8:	00f50e63          	beq	a0,a5,11cf4 <fdopen_main+0x9c>
/home/user/new-os-test/testsuits-for-oskernel/libc-test/src/functional/fdopen.c:22 (discriminator 1)
   11cdc:	00042603          	lw	a2,0(s0)
   11ce0:	000545b7          	lui	a1,0x54
   11ce4:	00054537          	lui	a0,0x54
   11ce8:	63858593          	addi	a1,a1,1592 # 54638 <CSWTCH.18+0x2b80>
   11cec:	65850513          	addi	a0,a0,1624 # 54658 <CSWTCH.18+0x2ba0>
   11cf0:	284160ef          	jal	ra,27f74 <t_printf>
/home/user/new-os-test/testsuits-for-oskernel/libc-test/src/functional/fdopen.c:23 (discriminator 3)
	TEST(f = fdopen(fd, "rb"));
   11cf4:	000545b7          	lui	a1,0x54
   11cf8:	00042023          	sw	zero,0(s0)
   11cfc:	69058593          	addi	a1,a1,1680 # 54690 <CSWTCH.18+0x2bd8>
   11d00:	00048513          	mv	a0,s1
   11d04:	530260ef          	jal	ra,38234 <__fdopen>
   11d08:	00050913          	mv	s2,a0
   11d0c:	06051a63          	bnez	a0,11d80 <fdopen_main+0x128>
/home/user/new-os-test/testsuits-for-oskernel/libc-test/src/functional/fdopen.c:23 (discriminator 1)
   11d10:	00042603          	lw	a2,0(s0)
   11d14:	000545b7          	lui	a1,0x54
   11d18:	00054537          	lui	a0,0x54
   11d1c:	69858593          	addi	a1,a1,1688 # 54698 <CSWTCH.18+0x2be0>
   11d20:	6b050513          	addi	a0,a0,1712 # 546b0 <CSWTCH.18+0x2bf8>
   11d24:	250160ef          	jal	ra,27f74 <t_printf>
/home/user/new-os-test/testsuits-for-oskernel/libc-test/src/functional/fdopen.c:32
		TEST(fgets(foo, sizeof foo, f));
		if (strcmp(foo,"hello") != 0)
			t_error("fgets read back: \"%s\"; wanted: \"hello\"\n", foo);
		fclose(f);
	}
	if (fd > 2)
   11d28:	00200793          	li	a5,2
   11d2c:	0297d863          	ble	s1,a5,11d5c <fdopen_main+0x104>
/home/user/new-os-test/testsuits-for-oskernel/libc-test/src/functional/fdopen.c:33
		TEST(unlink(tmp) != -1);
   11d30:	00042023          	sw	zero,0(s0)
   11d34:	00810513          	addi	a0,sp,8
   11d38:	445330ef          	jal	ra,4597c <unlink>
   11d3c:	fff00793          	li	a5,-1
   11d40:	00f51e63          	bne	a0,a5,11d5c <fdopen_main+0x104>
/home/user/new-os-test/testsuits-for-oskernel/libc-test/src/functional/fdopen.c:33 (discriminator 1)
   11d44:	00042603          	lw	a2,0(s0)
   11d48:	000555b7          	lui	a1,0x55
   11d4c:	00055537          	lui	a0,0x55
   11d50:	82858593          	addi	a1,a1,-2008 # 54828 <CSWTCH.18+0x2d70>
   11d54:	84050513          	addi	a0,a0,-1984 # 54840 <CSWTCH.18+0x2d88>
   11d58:	21c160ef          	jal	ra,27f74 <t_printf>
/home/user/new-os-test/testsuits-for-oskernel/libc-test/src/functional/fdopen.c:34 (discriminator 3)
	return t_status;
   11d5c:	bb01a503          	lw	a0,-1104(gp) # a8a38 <_edata>
/home/user/new-os-test/testsuits-for-oskernel/libc-test/src/functional/fdopen.c:35 (discriminator 3)
}
   11d60:	04813083          	ld	ra,72(sp)
   11d64:	04013403          	ld	s0,64(sp)
   11d68:	03813483          	ld	s1,56(sp)
   11d6c:	03013903          	ld	s2,48(sp)
   11d70:	02813983          	ld	s3,40(sp)
/home/user/new-os-test/testsuits-for-oskernel/libc-test/src/functional/fdopen.c:34 (discriminator 3)
	return t_status;
   11d74:	0005051b          	sext.w	a0,a0
/home/user/new-os-test/testsuits-for-oskernel/libc-test/src/functional/fdopen.c:35 (discriminator 3)
}
   11d78:	05010113          	addi	sp,sp,80
   11d7c:	00008067          	ret
/home/user/new-os-test/testsuits-for-oskernel/libc-test/src/functional/fdopen.c:25
		TEST(ftello(f)==6);
   11d80:	00042023          	sw	zero,0(s0)
   11d84:	1b9270ef          	jal	ra,3973c <__ftello>
   11d88:	00600793          	li	a5,6
   11d8c:	00f50e63          	beq	a0,a5,11da8 <fdopen_main+0x150>
/home/user/new-os-test/testsuits-for-oskernel/libc-test/src/functional/fdopen.c:25 (discriminator 1)
   11d90:	00042603          	lw	a2,0(s0)
   11d94:	000545b7          	lui	a1,0x54
   11d98:	00054537          	lui	a0,0x54
   11d9c:	6e858593          	addi	a1,a1,1768 # 546e8 <CSWTCH.18+0x2c30>
   11da0:	6f850513          	addi	a0,a0,1784 # 546f8 <CSWTCH.18+0x2c40>
   11da4:	1d0160ef          	jal	ra,27f74 <t_printf>
/home/user/new-os-test/testsuits-for-oskernel/libc-test/src/functional/fdopen.c:26 (discriminator 3)
		TEST(fseeko(f, 0, SEEK_SET)==0);
   11da8:	00042023          	sw	zero,0(s0)
   11dac:	00000613          	li	a2,0
   11db0:	00000593          	li	a1,0
   11db4:	00090513          	mv	a0,s2
   11db8:	095270ef          	jal	ra,3964c <__fseeko>
   11dbc:	00050e63          	beqz	a0,11dd8 <fdopen_main+0x180>
/home/user/new-os-test/testsuits-for-oskernel/libc-test/src/functional/fdopen.c:26 (discriminator 1)
   11dc0:	00042603          	lw	a2,0(s0)
   11dc4:	000545b7          	lui	a1,0x54
   11dc8:	00054537          	lui	a0,0x54
   11dcc:	73058593          	addi	a1,a1,1840 # 54730 <CSWTCH.18+0x2c78>
   11dd0:	75050513          	addi	a0,a0,1872 # 54750 <CSWTCH.18+0x2c98>
   11dd4:	1a0160ef          	jal	ra,27f74 <t_printf>
/home/user/new-os-test/testsuits-for-oskernel/libc-test/src/functional/fdopen.c:27 (discriminator 3)
		TEST(fgets(foo, sizeof foo, f));
   11dd8:	00042023          	sw	zero,0(s0)
   11ddc:	00090613          	mv	a2,s2
   11de0:	00600593          	li	a1,6
   11de4:	00010513          	mv	a0,sp
   11de8:	429260ef          	jal	ra,38a10 <fgets>
   11dec:	00051e63          	bnez	a0,11e08 <fdopen_main+0x1b0>
/home/user/new-os-test/testsuits-for-oskernel/libc-test/src/functional/fdopen.c:27 (discriminator 1)
   11df0:	00042603          	lw	a2,0(s0)
   11df4:	000545b7          	lui	a1,0x54
   11df8:	00054537          	lui	a0,0x54
   11dfc:	78858593          	addi	a1,a1,1928 # 54788 <CSWTCH.18+0x2cd0>
   11e00:	7a850513          	addi	a0,a0,1960 # 547a8 <CSWTCH.18+0x2cf0>
   11e04:	170160ef          	jal	ra,27f74 <t_printf>
/home/user/new-os-test/testsuits-for-oskernel/libc-test/src/functional/fdopen.c:28 (discriminator 3)
		if (strcmp(foo,"hello") != 0)
   11e08:	63098593          	addi	a1,s3,1584
   11e0c:	00010513          	mv	a0,sp
   11e10:	3ec2d0ef          	jal	ra,3f1fc <strcmp>
   11e14:	00050a63          	beqz	a0,11e28 <fdopen_main+0x1d0>
/home/user/new-os-test/testsuits-for-oskernel/libc-test/src/functional/fdopen.c:29
			t_error("fgets read back: \"%s\"; wanted: \"hello\"\n", foo);
   11e18:	00054537          	lui	a0,0x54
   11e1c:	00010593          	mv	a1,sp
   11e20:	7e050513          	addi	a0,a0,2016 # 547e0 <CSWTCH.18+0x2d28>
   11e24:	150160ef          	jal	ra,27f74 <t_printf>
/home/user/new-os-test/testsuits-for-oskernel/libc-test/src/functional/fdopen.c:30
		fclose(f);
   11e28:	00090513          	mv	a0,s2
   11e2c:	7dc260ef          	jal	ra,38608 <fclose>
   11e30:	ef9ff06f          	j	11d28 <fdopen_main+0xd0>

0000000000011e34 <fnmatch_main>:
/home/user/new-os-test/testsuits-for-oskernel/libc-test/src/functional/fnmatch.c:147
	{ "[!a-c]", "d", FNM_CASEFOLD, 0 },
#endif
};

int main(void)
{
   11e34:	f7010113          	addi	sp,sp,-144
   11e38:	07413023          	sd	s4,96(sp)
   11e3c:	000a7a37          	lui	s4,0xa7
   11e40:	07313423          	sd	s3,104(sp)
   11e44:	05613823          	sd	s6,80(sp)
   11e48:	000a0993          	mv	s3,s4
   11e4c:	05713423          	sd	s7,72(sp)
flagstr():
/home/user/new-os-test/testsuits-for-oskernel/libc-test/src/functional/fnmatch.c:37
	sep = "";
   11e50:	0006fb37          	lui	s6,0x6f
/home/user/new-os-test/testsuits-for-oskernel/libc-test/src/functional/fnmatch.c:41
			sep = "|";
   11e54:	00052bb7          	lui	s7,0x52
main():
/home/user/new-os-test/testsuits-for-oskernel/libc-test/src/functional/fnmatch.c:147
{
   11e58:	08813023          	sd	s0,128(sp)
   11e5c:	05513c23          	sd	s5,88(sp)
   11e60:	05813023          	sd	s8,64(sp)
   11e64:	05098413          	addi	s0,s3,80
   11e68:	08113423          	sd	ra,136(sp)
   11e6c:	06913c23          	sd	s1,120(sp)
   11e70:	07213823          	sd	s2,112(sp)
   11e74:	03913c23          	sd	s9,56(sp)
   11e78:	03a13823          	sd	s10,48(sp)
   11e7c:	03b13423          	sd	s11,40(sp)
   11e80:	74098993          	addi	s3,s3,1856
   11e84:	000a0a13          	mv	s4,s4
/home/user/new-os-test/testsuits-for-oskernel/libc-test/src/functional/fnmatch.c:156
		int r, x;

		r = fnmatch(tests[i].pattern, tests[i].string, tests[i].flags);
		x = tests[i].expected;
		if (r != x && (r != FNM_NOMATCH || x != -FNM_NOMATCH)) {
			t_error("fnmatch(\"%s\", \"%s\", %s) failed, got %d want %d\n",
   11e88:	00055c37          	lui	s8,0x55
flagstr():
/home/user/new-os-test/testsuits-for-oskernel/libc-test/src/functional/fnmatch.c:37
	sep = "";
   11e8c:	cc8b0b13          	addi	s6,s6,-824 # 6ecc8 <t+0x1758>
/home/user/new-os-test/testsuits-for-oskernel/libc-test/src/functional/fnmatch.c:41
			sep = "|";
   11e90:	9e0b8b93          	addi	s7,s7,-1568 # 519e0 <__clzdi2+0x84>
main():
/home/user/new-os-test/testsuits-for-oskernel/libc-test/src/functional/fnmatch.c:153
		r = fnmatch(tests[i].pattern, tests[i].string, tests[i].flags);
   11e94:	01042603          	lw	a2,16(s0)
   11e98:	00843583          	ld	a1,8(s0)
   11e9c:	00043503          	ld	a0,0(s0)
   11ea0:	6f11f0ef          	jal	ra,31d90 <fnmatch>
/home/user/new-os-test/testsuits-for-oskernel/libc-test/src/functional/fnmatch.c:154
		x = tests[i].expected;
   11ea4:	01442d83          	lw	s11,20(s0)
/home/user/new-os-test/testsuits-for-oskernel/libc-test/src/functional/fnmatch.c:153
		r = fnmatch(tests[i].pattern, tests[i].string, tests[i].flags);
   11ea8:	00050913          	mv	s2,a0
/home/user/new-os-test/testsuits-for-oskernel/libc-test/src/functional/fnmatch.c:155
		if (r != x && (r != FNM_NOMATCH || x != -FNM_NOMATCH)) {
   11eac:	05b50863          	beq	a0,s11,11efc <fnmatch_main+0xc8>
/home/user/new-os-test/testsuits-for-oskernel/libc-test/src/functional/fnmatch.c:155 (discriminator 1)
   11eb0:	00100793          	li	a5,1
   11eb4:	00f51663          	bne	a0,a5,11ec0 <fnmatch_main+0x8c>
/home/user/new-os-test/testsuits-for-oskernel/libc-test/src/functional/fnmatch.c:155 (discriminator 2)
   11eb8:	fff00793          	li	a5,-1
   11ebc:	04fd8063          	beq	s11,a5,11efc <fnmatch_main+0xc8>
/home/user/new-os-test/testsuits-for-oskernel/libc-test/src/functional/fnmatch.c:156
			t_error("fnmatch(\"%s\", \"%s\", %s) failed, got %d want %d\n",
   11ec0:	01042483          	lw	s1,16(s0)
   11ec4:	00043c83          	ld	s9,0(s0)
   11ec8:	00843d03          	ld	s10,8(s0)
flagstr():
/home/user/new-os-test/testsuits-for-oskernel/libc-test/src/functional/fnmatch.c:32
	if (!flags) {
   11ecc:	0e049a63          	bnez	s1,11fc0 <fnmatch_main+0x18c>
/home/user/new-os-test/testsuits-for-oskernel/libc-test/src/functional/fnmatch.c:33
		sprintf(buf, "0");
   11ed0:	000725b7          	lui	a1,0x72
   11ed4:	67858593          	addi	a1,a1,1656 # 72678 <t+0x5108>
   11ed8:	f0018513          	addi	a0,gp,-256 # a8d88 <buf.0>
   11edc:	388280ef          	jal	ra,3a264 <sprintf>
main():
/home/user/new-os-test/testsuits-for-oskernel/libc-test/src/functional/fnmatch.c:156
			t_error("fnmatch(\"%s\", \"%s\", %s) failed, got %d want %d\n",
   11ee0:	000d8793          	mv	a5,s11
   11ee4:	00090713          	mv	a4,s2
   11ee8:	f0018693          	addi	a3,gp,-256 # a8d88 <buf.0>
   11eec:	000d0613          	mv	a2,s10
   11ef0:	000c8593          	mv	a1,s9
   11ef4:	8a0c0513          	addi	a0,s8,-1888 # 548a0 <CSWTCH.18+0x2de8>
   11ef8:	07c160ef          	jal	ra,27f74 <t_printf>
/home/user/new-os-test/testsuits-for-oskernel/libc-test/src/functional/fnmatch.c:150 (discriminator 2)
	for (i = 0; i < sizeof(tests) / sizeof(*tests); i++) {
   11efc:	01840413          	addi	s0,s0,24
   11f00:	f9341ae3          	bne	s0,s3,11e94 <fnmatch_main+0x60>
/home/user/new-os-test/testsuits-for-oskernel/libc-test/src/functional/fnmatch.c:162
				tests[i].pattern, tests[i].string,
				flagstr(fnmatch_flags, tests[i].flags),
				r, x);
		}
	}
	return t_status;
   11f04:	bb01a503          	lw	a0,-1104(gp) # a8a38 <_edata>
/home/user/new-os-test/testsuits-for-oskernel/libc-test/src/functional/fnmatch.c:163
}
   11f08:	08813083          	ld	ra,136(sp)
   11f0c:	08013403          	ld	s0,128(sp)
   11f10:	07813483          	ld	s1,120(sp)
   11f14:	07013903          	ld	s2,112(sp)
   11f18:	06813983          	ld	s3,104(sp)
   11f1c:	06013a03          	ld	s4,96(sp)
   11f20:	05813a83          	ld	s5,88(sp)
   11f24:	05013b03          	ld	s6,80(sp)
   11f28:	04813b83          	ld	s7,72(sp)
   11f2c:	04013c03          	ld	s8,64(sp)
   11f30:	03813c83          	ld	s9,56(sp)
   11f34:	03013d03          	ld	s10,48(sp)
   11f38:	02813d83          	ld	s11,40(sp)
   11f3c:	0005051b          	sext.w	a0,a0
   11f40:	09010113          	addi	sp,sp,144
   11f44:	00008067          	ret
flagstr():
/home/user/new-os-test/testsuits-for-oskernel/libc-test/src/functional/fnmatch.c:39
		if (map->val && (flags & map->val) == map->val) {
   11f48:	0007a583          	lw	a1,0(a5)
   11f4c:	04058663          	beqz	a1,11f98 <fnmatch_main+0x164>
   11f50:	0095f533          	and	a0,a1,s1
   11f54:	04a59263          	bne	a1,a0,11f98 <fnmatch_main+0x164>
/home/user/new-os-test/testsuits-for-oskernel/libc-test/src/functional/fnmatch.c:40
			n += sprintf(buf+n, "%s%s", sep, map->str);
   11f58:	00e80533          	add	a0,a6,a4
   11f5c:	9e888593          	addi	a1,a7,-1560
   11f60:	00f13c23          	sd	a5,24(sp)
   11f64:	00e13823          	sd	a4,16(sp)
   11f68:	01013423          	sd	a6,8(sp)
   11f6c:	2f8280ef          	jal	ra,3a264 <sprintf>
/home/user/new-os-test/testsuits-for-oskernel/libc-test/src/functional/fnmatch.c:42
			flags &= ~(map->val);
   11f70:	01813783          	ld	a5,24(sp)
/home/user/new-os-test/testsuits-for-oskernel/libc-test/src/functional/fnmatch.c:40
			n += sprintf(buf+n, "%s%s", sep, map->str);
   11f74:	01013703          	ld	a4,16(sp)
/home/user/new-os-test/testsuits-for-oskernel/libc-test/src/functional/fnmatch.c:41
			sep = "|";
   11f78:	00813803          	ld	a6,8(sp)
/home/user/new-os-test/testsuits-for-oskernel/libc-test/src/functional/fnmatch.c:42
			flags &= ~(map->val);
   11f7c:	0007a683          	lw	a3,0(a5)
/home/user/new-os-test/testsuits-for-oskernel/libc-test/src/functional/fnmatch.c:40
			n += sprintf(buf+n, "%s%s", sep, map->str);
   11f80:	00a7073b          	addw	a4,a4,a0
/home/user/new-os-test/testsuits-for-oskernel/libc-test/src/functional/fnmatch.c:41
			sep = "|";
   11f84:	000b8613          	mv	a2,s7
/home/user/new-os-test/testsuits-for-oskernel/libc-test/src/functional/fnmatch.c:42
			flags &= ~(map->val);
   11f88:	fff6c693          	not	a3,a3
   11f8c:	00d4f4b3          	and	s1,s1,a3
   11f90:	0004849b          	sext.w	s1,s1
/home/user/new-os-test/testsuits-for-oskernel/libc-test/src/functional/fnmatch.c:41
			sep = "|";
   11f94:	000528b7          	lui	a7,0x52
/home/user/new-os-test/testsuits-for-oskernel/libc-test/src/functional/fnmatch.c:38
	for (; map->str; map++) {
   11f98:	01078793          	addi	a5,a5,16
   11f9c:	0087b683          	ld	a3,8(a5)
   11fa0:	fa0694e3          	bnez	a3,11f48 <fnmatch_main+0x114>
/home/user/new-os-test/testsuits-for-oskernel/libc-test/src/functional/fnmatch.c:45
	if (flags)
   11fa4:	f2048ee3          	beqz	s1,11ee0 <fnmatch_main+0xac>
/home/user/new-os-test/testsuits-for-oskernel/libc-test/src/functional/fnmatch.c:46
		sprintf(buf, "%sunknown=%#x", sep, flags);
   11fa8:	000555b7          	lui	a1,0x55
   11fac:	00048693          	mv	a3,s1
   11fb0:	89058593          	addi	a1,a1,-1904 # 54890 <CSWTCH.18+0x2dd8>
   11fb4:	f0018513          	addi	a0,gp,-256 # a8d88 <buf.0>
   11fb8:	2ac280ef          	jal	ra,3a264 <sprintf>
   11fbc:	f25ff06f          	j	11ee0 <fnmatch_main+0xac>
/home/user/new-os-test/testsuits-for-oskernel/libc-test/src/functional/fnmatch.c:36
	n = 0;
   11fc0:	00000713          	li	a4,0
/home/user/new-os-test/testsuits-for-oskernel/libc-test/src/functional/fnmatch.c:37
	sep = "";
   11fc4:	000b0613          	mv	a2,s6
   11fc8:	000a0793          	mv	a5,s4
/home/user/new-os-test/testsuits-for-oskernel/libc-test/src/functional/fnmatch.c:40
			n += sprintf(buf+n, "%s%s", sep, map->str);
   11fcc:	f0018813          	addi	a6,gp,-256 # a8d88 <buf.0>
   11fd0:	000528b7          	lui	a7,0x52
   11fd4:	fc9ff06f          	j	11f9c <fnmatch_main+0x168>

0000000000011fd8 <fscanf_main>:
main():
/home/user/new-os-test/testsuits-for-oskernel/libc-test/src/functional/fscanf.c:29
	rewind(f);
	return f;
}

int main(void)
{
   11fd8:	ee010113          	addi	sp,sp,-288
   11fdc:	10813823          	sd	s0,272(sp)
   11fe0:	10113c23          	sd	ra,280(sp)
   11fe4:	10913423          	sd	s1,264(sp)
   11fe8:	11213023          	sd	s2,256(sp)
/home/user/new-os-test/testsuits-for-oskernel/libc-test/src/functional/fscanf.c:36
	double u;
	char a[100], b[100];
	FILE *f;
	int p[2];

	TEST(i, pipe(p), 0, "failed to open pipe %d!=%d (%s)");
   11fec:	3951a0ef          	jal	ra,2cb80 <__errno_location>
   11ff0:	00050413          	mv	s0,a0
   11ff4:	00052023          	sw	zero,0(a0)
   11ff8:	02810513          	addi	a0,sp,40
   11ffc:	08d330ef          	jal	ra,45888 <pipe>
   12000:	02050863          	beqz	a0,12030 <fscanf_main+0x58>
   12004:	00a13423          	sd	a0,8(sp)
/home/user/new-os-test/testsuits-for-oskernel/libc-test/src/functional/fscanf.c:36 (discriminator 2)
   12008:	00042503          	lw	a0,0(s0)
   1200c:	3cd1a0ef          	jal	ra,2cbd8 <strerror>
   12010:	00813603          	ld	a2,8(sp)
   12014:	00050713          	mv	a4,a0
   12018:	000555b7          	lui	a1,0x55
   1201c:	00055537          	lui	a0,0x55
   12020:	00000693          	li	a3,0
   12024:	be858593          	addi	a1,a1,-1048 # 54be8 <CSWTCH.18+0x3130>
   12028:	bf050513          	addi	a0,a0,-1040 # 54bf0 <CSWTCH.18+0x3138>
   1202c:	749150ef          	jal	ra,27f74 <t_printf>
/home/user/new-os-test/testsuits-for-oskernel/libc-test/src/functional/fscanf.c:37
	TEST(i, !(f = fdopen(p[0], "rb")), 0, "failed to fdopen pipe %d!=%d (%s)");
   12030:	02812503          	lw	a0,40(sp)
   12034:	000545b7          	lui	a1,0x54
   12038:	00042023          	sw	zero,0(s0)
   1203c:	69058593          	addi	a1,a1,1680 # 54690 <CSWTCH.18+0x2bd8>
   12040:	1f4260ef          	jal	ra,38234 <__fdopen>
   12044:	00050493          	mv	s1,a0
   12048:	300516e3          	bnez	a0,12b54 <fscanf_main+0xb7c>
/home/user/new-os-test/testsuits-for-oskernel/libc-test/src/functional/fscanf.c:37 (discriminator 2)
   1204c:	00042503          	lw	a0,0(s0)
   12050:	3891a0ef          	jal	ra,2cbd8 <strerror>
   12054:	00050713          	mv	a4,a0
   12058:	000555b7          	lui	a1,0x55
   1205c:	00055537          	lui	a0,0x55
   12060:	00000693          	li	a3,0
   12064:	00100613          	li	a2,1
   12068:	c4058593          	addi	a1,a1,-960 # 54c40 <CSWTCH.18+0x3188>
   1206c:	c6050513          	addi	a0,a0,-928 # 54c60 <CSWTCH.18+0x31a8>
   12070:	705150ef          	jal	ra,27f74 <t_printf>
/home/user/new-os-test/testsuits-for-oskernel/libc-test/src/functional/fscanf.c:40 (discriminator 2)

	if (!f) {
		close(p[0]);
   12074:	02812503          	lw	a0,40(sp)
   12078:	6f0330ef          	jal	ra,45768 <close>
/home/user/new-os-test/testsuits-for-oskernel/libc-test/src/functional/fscanf.c:41 (discriminator 2)
		close(p[1]);
   1207c:	02c12503          	lw	a0,44(sp)
   12080:	6e8330ef          	jal	ra,45768 <close>
/home/user/new-os-test/testsuits-for-oskernel/libc-test/src/functional/fscanf.c:42 (discriminator 2)
		return 1;
   12084:	00100513          	li	a0,1
/home/user/new-os-test/testsuits-for-oskernel/libc-test/src/functional/fscanf.c:133
		TEST(i, feof(f), 0, "%d != %d");
		fclose(f);
	}

	return t_status;
}
   12088:	11813083          	ld	ra,280(sp)
   1208c:	11013403          	ld	s0,272(sp)
   12090:	10813483          	ld	s1,264(sp)
   12094:	10013903          	ld	s2,256(sp)
   12098:	12010113          	addi	sp,sp,288
   1209c:	00008067          	ret
/home/user/new-os-test/testsuits-for-oskernel/libc-test/src/functional/fscanf.c:124
		TEST(i, fscanf(f, "%x%n", &x, &y), 0, "%d != %d");
   120a0:	000565b7          	lui	a1,0x56
/home/user/new-os-test/testsuits-for-oskernel/libc-test/src/functional/fscanf.c:123
		x=y=-1;
   120a4:	fff00793          	li	a5,-1
/home/user/new-os-test/testsuits-for-oskernel/libc-test/src/functional/fscanf.c:124
		TEST(i, fscanf(f, "%x%n", &x, &y), 0, "%d != %d");
   120a8:	01810613          	addi	a2,sp,24
   120ac:	00042023          	sw	zero,0(s0)
   120b0:	01c10693          	addi	a3,sp,28
   120b4:	c6058593          	addi	a1,a1,-928 # 55c60 <CSWTCH.18+0x41a8>
/home/user/new-os-test/testsuits-for-oskernel/libc-test/src/functional/fscanf.c:123
		x=y=-1;
   120b8:	00f12e23          	sw	a5,28(sp)
   120bc:	00f12c23          	sw	a5,24(sp)
/home/user/new-os-test/testsuits-for-oskernel/libc-test/src/functional/fscanf.c:124
		TEST(i, fscanf(f, "%x%n", &x, &y), 0, "%d != %d");
   120c0:	490270ef          	jal	ra,39550 <fscanf>
   120c4:	00050613          	mv	a2,a0
   120c8:	02050863          	beqz	a0,120f8 <fscanf_main+0x120>
/home/user/new-os-test/testsuits-for-oskernel/libc-test/src/functional/fscanf.c:124 (discriminator 2)
   120cc:	00042503          	lw	a0,0(s0)
   120d0:	00c13423          	sd	a2,8(sp)
   120d4:	3051a0ef          	jal	ra,2cbd8 <strerror>
   120d8:	00813603          	ld	a2,8(sp)
   120dc:	00050713          	mv	a4,a0
   120e0:	000565b7          	lui	a1,0x56
   120e4:	00056537          	lui	a0,0x56
   120e8:	00000693          	li	a3,0
   120ec:	b2858593          	addi	a1,a1,-1240 # 55b28 <CSWTCH.18+0x4070>
   120f0:	b4850513          	addi	a0,a0,-1208 # 55b48 <CSWTCH.18+0x4090>
   120f4:	681150ef          	jal	ra,27f74 <t_printf>
/home/user/new-os-test/testsuits-for-oskernel/libc-test/src/functional/fscanf.c:125
		TEST(i, x, -1, "%d != %d");
   120f8:	01812603          	lw	a2,24(sp)
   120fc:	00042023          	sw	zero,0(s0)
   12100:	fff00793          	li	a5,-1
   12104:	00c13423          	sd	a2,8(sp)
   12108:	02f60663          	beq	a2,a5,12134 <fscanf_main+0x15c>
/home/user/new-os-test/testsuits-for-oskernel/libc-test/src/functional/fscanf.c:125 (discriminator 2)
   1210c:	00000513          	li	a0,0
   12110:	2c91a0ef          	jal	ra,2cbd8 <strerror>
   12114:	00813603          	ld	a2,8(sp)
   12118:	00050713          	mv	a4,a0
   1211c:	000a05b7          	lui	a1,0xa0
   12120:	00056537          	lui	a0,0x56
   12124:	fff00693          	li	a3,-1
   12128:	b2858593          	addi	a1,a1,-1240 # 9fb28 <messages+0x1d0>
   1212c:	b8050513          	addi	a0,a0,-1152 # 55b80 <CSWTCH.18+0x40c8>
   12130:	645150ef          	jal	ra,27f74 <t_printf>
/home/user/new-os-test/testsuits-for-oskernel/libc-test/src/functional/fscanf.c:126
		TEST(i, y, -1, "%d != %d");
   12134:	01c12603          	lw	a2,28(sp)
   12138:	00042023          	sw	zero,0(s0)
   1213c:	fff00793          	li	a5,-1
   12140:	00c13423          	sd	a2,8(sp)
   12144:	02f60663          	beq	a2,a5,12170 <fscanf_main+0x198>
/home/user/new-os-test/testsuits-for-oskernel/libc-test/src/functional/fscanf.c:126 (discriminator 2)
   12148:	00000513          	li	a0,0
   1214c:	28d1a0ef          	jal	ra,2cbd8 <strerror>
   12150:	00813603          	ld	a2,8(sp)
   12154:	00050713          	mv	a4,a0
   12158:	000555b7          	lui	a1,0x55
   1215c:	00056537          	lui	a0,0x56
   12160:	fff00693          	li	a3,-1
   12164:	0f058593          	addi	a1,a1,240 # 550f0 <CSWTCH.18+0x3638>
   12168:	bb850513          	addi	a0,a0,-1096 # 55bb8 <CSWTCH.18+0x4100>
   1216c:	609150ef          	jal	ra,27f74 <t_printf>
/home/user/new-os-test/testsuits-for-oskernel/libc-test/src/functional/fscanf.c:127
		TEST(i, ftell(f), 2, "%d != %d");
   12170:	00042023          	sw	zero,0(s0)
   12174:	00048513          	mv	a0,s1
   12178:	628270ef          	jal	ra,397a0 <ftell>
   1217c:	0005061b          	sext.w	a2,a0
   12180:	00200793          	li	a5,2
   12184:	00c13423          	sd	a2,8(sp)
   12188:	02f60663          	beq	a2,a5,121b4 <fscanf_main+0x1dc>
/home/user/new-os-test/testsuits-for-oskernel/libc-test/src/functional/fscanf.c:127 (discriminator 2)
   1218c:	00042503          	lw	a0,0(s0)
   12190:	2491a0ef          	jal	ra,2cbd8 <strerror>
   12194:	00813603          	ld	a2,8(sp)
   12198:	00050713          	mv	a4,a0
   1219c:	000555b7          	lui	a1,0x55
   121a0:	00056537          	lui	a0,0x56
   121a4:	00200693          	li	a3,2
   121a8:	13058593          	addi	a1,a1,304 # 55130 <CSWTCH.18+0x3678>
   121ac:	bf050513          	addi	a0,a0,-1040 # 55bf0 <CSWTCH.18+0x4138>
   121b0:	5c5150ef          	jal	ra,27f74 <t_printf>
/home/user/new-os-test/testsuits-for-oskernel/libc-test/src/functional/fscanf.c:128
		TEST(i, feof(f), 0, "%d != %d");
   121b4:	00042023          	sw	zero,0(s0)
   121b8:	00048513          	mv	a0,s1
   121bc:	518260ef          	jal	ra,386d4 <feof>
   121c0:	02050863          	beqz	a0,121f0 <fscanf_main+0x218>
   121c4:	00a13423          	sd	a0,8(sp)
/home/user/new-os-test/testsuits-for-oskernel/libc-test/src/functional/fscanf.c:128 (discriminator 2)
   121c8:	00042503          	lw	a0,0(s0)
   121cc:	20d1a0ef          	jal	ra,2cbd8 <strerror>
   121d0:	00813603          	ld	a2,8(sp)
   121d4:	00050713          	mv	a4,a0
   121d8:	000555b7          	lui	a1,0x55
   121dc:	00056537          	lui	a0,0x56
   121e0:	00000693          	li	a3,0
   121e4:	3f058593          	addi	a1,a1,1008 # 553f0 <CSWTCH.18+0x3938>
   121e8:	c2850513          	addi	a0,a0,-984 # 55c28 <CSWTCH.18+0x4170>
   121ec:	589150ef          	jal	ra,27f74 <t_printf>
/home/user/new-os-test/testsuits-for-oskernel/libc-test/src/functional/fscanf.c:129
		fclose(f);
   121f0:	00048513          	mv	a0,s1
   121f4:	414260ef          	jal	ra,38608 <fclose>
   121f8:	50d0006f          	j	12f04 <fscanf_main+0xf2c>
/home/user/new-os-test/testsuits-for-oskernel/libc-test/src/functional/fscanf.c:110
		x=y=-1;
   121fc:	fff00793          	li	a5,-1
   12200:	00f12e23          	sw	a5,28(sp)
   12204:	00f12c23          	sw	a5,24(sp)
/home/user/new-os-test/testsuits-for-oskernel/libc-test/src/functional/fscanf.c:111
		u=-1;
   12208:	8181b787          	fld	fa5,-2024(gp) # a86a0 <__SDATA_BEGIN__+0x18>
/home/user/new-os-test/testsuits-for-oskernel/libc-test/src/functional/fscanf.c:112
		TEST(i, fscanf(f, "%lf%n %i", &u, &x, &y), 2, "%d != %d");
   1220c:	000565b7          	lui	a1,0x56
   12210:	02010613          	addi	a2,sp,32
   12214:	00042023          	sw	zero,0(s0)
   12218:	01c10713          	addi	a4,sp,28
   1221c:	01810693          	addi	a3,sp,24
   12220:	c6858593          	addi	a1,a1,-920 # 55c68 <CSWTCH.18+0x41b0>
/home/user/new-os-test/testsuits-for-oskernel/libc-test/src/functional/fscanf.c:111
		u=-1;
   12224:	02f13027          	fsd	fa5,32(sp)
/home/user/new-os-test/testsuits-for-oskernel/libc-test/src/functional/fscanf.c:112
		TEST(i, fscanf(f, "%lf%n %i", &u, &x, &y), 2, "%d != %d");
   12228:	328270ef          	jal	ra,39550 <fscanf>
   1222c:	00200793          	li	a5,2
   12230:	00050613          	mv	a2,a0
   12234:	02f50863          	beq	a0,a5,12264 <fscanf_main+0x28c>
/home/user/new-os-test/testsuits-for-oskernel/libc-test/src/functional/fscanf.c:112 (discriminator 2)
   12238:	00042503          	lw	a0,0(s0)
   1223c:	00c13423          	sd	a2,8(sp)
   12240:	1991a0ef          	jal	ra,2cbd8 <strerror>
   12244:	00813603          	ld	a2,8(sp)
   12248:	00050713          	mv	a4,a0
   1224c:	000565b7          	lui	a1,0x56
   12250:	00056537          	lui	a0,0x56
   12254:	00200693          	li	a3,2
   12258:	94858593          	addi	a1,a1,-1720 # 55948 <CSWTCH.18+0x3e90>
   1225c:	97050513          	addi	a0,a0,-1680 # 55970 <CSWTCH.18+0x3eb8>
   12260:	515150ef          	jal	ra,27f74 <t_printf>
/home/user/new-os-test/testsuits-for-oskernel/libc-test/src/functional/fscanf.c:113
		TEST(u, u, 1.0, "%g != %g");
   12264:	02013787          	fld	fa5,32(sp)
   12268:	8201b707          	fld	fa4,-2016(gp) # a86a8 <__SDATA_BEGIN__+0x20>
   1226c:	00042023          	sw	zero,0(s0)
   12270:	a2e7a7d3          	feq.d	a5,fa5,fa4
   12274:	02079c63          	bnez	a5,122ac <fscanf_main+0x2d4>
/home/user/new-os-test/testsuits-for-oskernel/libc-test/src/functional/fscanf.c:113 (discriminator 2)
   12278:	00000513          	li	a0,0
   1227c:	00f13427          	fsd	fa5,8(sp)
   12280:	1591a0ef          	jal	ra,2cbd8 <strerror>
   12284:	8201b707          	fld	fa4,-2016(gp) # a86a8 <__SDATA_BEGIN__+0x20>
   12288:	00813787          	fld	fa5,8(sp)
   1228c:	00050713          	mv	a4,a0
   12290:	e20706d3          	fmv.x.d	a3,fa4
   12294:	e2078653          	fmv.x.d	a2,fa5
   12298:	000555b7          	lui	a1,0x55
   1229c:	00056537          	lui	a0,0x56
   122a0:	53858593          	addi	a1,a1,1336 # 55538 <CSWTCH.18+0x3a80>
   122a4:	9a850513          	addi	a0,a0,-1624 # 559a8 <CSWTCH.18+0x3ef0>
   122a8:	4cd150ef          	jal	ra,27f74 <t_printf>
/home/user/new-os-test/testsuits-for-oskernel/libc-test/src/functional/fscanf.c:114
		TEST(i, x, 6, "%d != %d");
   122ac:	01812603          	lw	a2,24(sp)
   122b0:	00042023          	sw	zero,0(s0)
   122b4:	00600793          	li	a5,6
   122b8:	00c13423          	sd	a2,8(sp)
   122bc:	02f60663          	beq	a2,a5,122e8 <fscanf_main+0x310>
/home/user/new-os-test/testsuits-for-oskernel/libc-test/src/functional/fscanf.c:114 (discriminator 2)
   122c0:	00000513          	li	a0,0
   122c4:	1151a0ef          	jal	ra,2cbd8 <strerror>
   122c8:	00813603          	ld	a2,8(sp)
   122cc:	00050713          	mv	a4,a0
   122d0:	000a05b7          	lui	a1,0xa0
   122d4:	00056537          	lui	a0,0x56
   122d8:	00600693          	li	a3,6
   122dc:	b2858593          	addi	a1,a1,-1240 # 9fb28 <messages+0x1d0>
   122e0:	9e050513          	addi	a0,a0,-1568 # 559e0 <CSWTCH.18+0x3f28>
   122e4:	491150ef          	jal	ra,27f74 <t_printf>
/home/user/new-os-test/testsuits-for-oskernel/libc-test/src/functional/fscanf.c:115
		TEST(i, y, 10, "%d != %d");
   122e8:	01c12603          	lw	a2,28(sp)
   122ec:	00042023          	sw	zero,0(s0)
   122f0:	00a00793          	li	a5,10
   122f4:	00c13423          	sd	a2,8(sp)
   122f8:	02f60663          	beq	a2,a5,12324 <fscanf_main+0x34c>
/home/user/new-os-test/testsuits-for-oskernel/libc-test/src/functional/fscanf.c:115 (discriminator 2)
   122fc:	00000513          	li	a0,0
   12300:	0d91a0ef          	jal	ra,2cbd8 <strerror>
   12304:	00813603          	ld	a2,8(sp)
   12308:	00050713          	mv	a4,a0
   1230c:	000555b7          	lui	a1,0x55
   12310:	00056537          	lui	a0,0x56
   12314:	00a00693          	li	a3,10
   12318:	0f058593          	addi	a1,a1,240 # 550f0 <CSWTCH.18+0x3638>
   1231c:	a1850513          	addi	a0,a0,-1512 # 55a18 <CSWTCH.18+0x3f60>
   12320:	455150ef          	jal	ra,27f74 <t_printf>
/home/user/new-os-test/testsuits-for-oskernel/libc-test/src/functional/fscanf.c:116
		TEST(i, ftell(f), 13, "%d != %d");
   12324:	00042023          	sw	zero,0(s0)
   12328:	00048513          	mv	a0,s1
   1232c:	474270ef          	jal	ra,397a0 <ftell>
   12330:	0005061b          	sext.w	a2,a0
   12334:	00d00793          	li	a5,13
   12338:	00c13423          	sd	a2,8(sp)
   1233c:	02f60663          	beq	a2,a5,12368 <fscanf_main+0x390>
/home/user/new-os-test/testsuits-for-oskernel/libc-test/src/functional/fscanf.c:116 (discriminator 2)
   12340:	00042503          	lw	a0,0(s0)
   12344:	0951a0ef          	jal	ra,2cbd8 <strerror>
   12348:	00813603          	ld	a2,8(sp)
   1234c:	00050713          	mv	a4,a0
   12350:	000555b7          	lui	a1,0x55
   12354:	00056537          	lui	a0,0x56
   12358:	00d00693          	li	a3,13
   1235c:	13058593          	addi	a1,a1,304 # 55130 <CSWTCH.18+0x3678>
   12360:	a5050513          	addi	a0,a0,-1456 # 55a50 <CSWTCH.18+0x3f98>
   12364:	411150ef          	jal	ra,27f74 <t_printf>
/home/user/new-os-test/testsuits-for-oskernel/libc-test/src/functional/fscanf.c:117
		TEST(i, !!feof(f), 1, "%d != %d");
   12368:	00042023          	sw	zero,0(s0)
   1236c:	00048513          	mv	a0,s1
   12370:	364260ef          	jal	ra,386d4 <feof>
   12374:	02051663          	bnez	a0,123a0 <fscanf_main+0x3c8>
/home/user/new-os-test/testsuits-for-oskernel/libc-test/src/functional/fscanf.c:117 (discriminator 2)
   12378:	00042503          	lw	a0,0(s0)
   1237c:	05d1a0ef          	jal	ra,2cbd8 <strerror>
   12380:	00050713          	mv	a4,a0
   12384:	000555b7          	lui	a1,0x55
   12388:	00056537          	lui	a0,0x56
   1238c:	00100693          	li	a3,1
   12390:	00000613          	li	a2,0
   12394:	17858593          	addi	a1,a1,376 # 55178 <CSWTCH.18+0x36c0>
   12398:	a8850513          	addi	a0,a0,-1400 # 55a88 <CSWTCH.18+0x3fd0>
   1239c:	3d9150ef          	jal	ra,27f74 <t_printf>
/home/user/new-os-test/testsuits-for-oskernel/libc-test/src/functional/fscanf.c:118
		fclose(f);
   123a0:	00048513          	mv	a0,s1
   123a4:	264260ef          	jal	ra,38608 <fclose>
   123a8:	3190006f          	j	12ec0 <fscanf_main+0xee8>
/home/user/new-os-test/testsuits-for-oskernel/libc-test/src/functional/fscanf.c:87
		u=-1;
   123ac:	8181b787          	fld	fa5,-2024(gp) # a86a0 <__SDATA_BEGIN__+0x18>
/home/user/new-os-test/testsuits-for-oskernel/libc-test/src/functional/fscanf.c:88
		TEST(i, fscanf(f, "%lf%n %d", &u, &x, &y), 0, "%d != %d");
   123b0:	000565b7          	lui	a1,0x56
/home/user/new-os-test/testsuits-for-oskernel/libc-test/src/functional/fscanf.c:86
		x=y=-1;
   123b4:	fff00793          	li	a5,-1
/home/user/new-os-test/testsuits-for-oskernel/libc-test/src/functional/fscanf.c:88
		TEST(i, fscanf(f, "%lf%n %d", &u, &x, &y), 0, "%d != %d");
   123b8:	02010613          	addi	a2,sp,32
   123bc:	00042023          	sw	zero,0(s0)
   123c0:	01c10713          	addi	a4,sp,28
   123c4:	01810693          	addi	a3,sp,24
   123c8:	c7858593          	addi	a1,a1,-904 # 55c78 <CSWTCH.18+0x41c0>
/home/user/new-os-test/testsuits-for-oskernel/libc-test/src/functional/fscanf.c:86
		x=y=-1;
   123cc:	00f12e23          	sw	a5,28(sp)
   123d0:	00f12c23          	sw	a5,24(sp)
/home/user/new-os-test/testsuits-for-oskernel/libc-test/src/functional/fscanf.c:87
		u=-1;
   123d4:	02f13027          	fsd	fa5,32(sp)
/home/user/new-os-test/testsuits-for-oskernel/libc-test/src/functional/fscanf.c:88
		TEST(i, fscanf(f, "%lf%n %d", &u, &x, &y), 0, "%d != %d");
   123d8:	178270ef          	jal	ra,39550 <fscanf>
   123dc:	00050613          	mv	a2,a0
   123e0:	02050863          	beqz	a0,12410 <fscanf_main+0x438>
/home/user/new-os-test/testsuits-for-oskernel/libc-test/src/functional/fscanf.c:88 (discriminator 2)
   123e4:	00042503          	lw	a0,0(s0)
   123e8:	00c13423          	sd	a2,8(sp)
   123ec:	7ec1a0ef          	jal	ra,2cbd8 <strerror>
   123f0:	00813603          	ld	a2,8(sp)
   123f4:	00050713          	mv	a4,a0
   123f8:	000555b7          	lui	a1,0x55
   123fc:	00055537          	lui	a0,0x55
   12400:	00000693          	li	a3,0
   12404:	4d858593          	addi	a1,a1,1240 # 554d8 <CSWTCH.18+0x3a20>
   12408:	50050513          	addi	a0,a0,1280 # 55500 <CSWTCH.18+0x3a48>
   1240c:	369150ef          	jal	ra,27f74 <t_printf>
/home/user/new-os-test/testsuits-for-oskernel/libc-test/src/functional/fscanf.c:89
		TEST(u, u, -1.0, "%g != %g");
   12410:	02013787          	fld	fa5,32(sp)
   12414:	8181b707          	fld	fa4,-2024(gp) # a86a0 <__SDATA_BEGIN__+0x18>
   12418:	00042023          	sw	zero,0(s0)
   1241c:	a2e7a7d3          	feq.d	a5,fa5,fa4
   12420:	02079c63          	bnez	a5,12458 <fscanf_main+0x480>
/home/user/new-os-test/testsuits-for-oskernel/libc-test/src/functional/fscanf.c:89 (discriminator 2)
   12424:	00000513          	li	a0,0
   12428:	00f13427          	fsd	fa5,8(sp)
   1242c:	7ac1a0ef          	jal	ra,2cbd8 <strerror>
   12430:	8181b707          	fld	fa4,-2024(gp) # a86a0 <__SDATA_BEGIN__+0x18>
   12434:	00813787          	fld	fa5,8(sp)
   12438:	00050713          	mv	a4,a0
   1243c:	e20706d3          	fmv.x.d	a3,fa4
   12440:	e2078653          	fmv.x.d	a2,fa5
   12444:	000555b7          	lui	a1,0x55
   12448:	00055537          	lui	a0,0x55
   1244c:	53858593          	addi	a1,a1,1336 # 55538 <CSWTCH.18+0x3a80>
   12450:	54050513          	addi	a0,a0,1344 # 55540 <CSWTCH.18+0x3a88>
   12454:	321150ef          	jal	ra,27f74 <t_printf>
/home/user/new-os-test/testsuits-for-oskernel/libc-test/src/functional/fscanf.c:90
		TEST(i, x, -1, "%d != %d");
   12458:	01812603          	lw	a2,24(sp)
   1245c:	00042023          	sw	zero,0(s0)
   12460:	fff00793          	li	a5,-1
   12464:	00c13423          	sd	a2,8(sp)
   12468:	02f60663          	beq	a2,a5,12494 <fscanf_main+0x4bc>
/home/user/new-os-test/testsuits-for-oskernel/libc-test/src/functional/fscanf.c:90 (discriminator 2)
   1246c:	00000513          	li	a0,0
   12470:	7681a0ef          	jal	ra,2cbd8 <strerror>
   12474:	00813603          	ld	a2,8(sp)
   12478:	00050713          	mv	a4,a0
   1247c:	000a05b7          	lui	a1,0xa0
   12480:	00055537          	lui	a0,0x55
   12484:	fff00693          	li	a3,-1
   12488:	b2858593          	addi	a1,a1,-1240 # 9fb28 <messages+0x1d0>
   1248c:	57850513          	addi	a0,a0,1400 # 55578 <CSWTCH.18+0x3ac0>
   12490:	2e5150ef          	jal	ra,27f74 <t_printf>
/home/user/new-os-test/testsuits-for-oskernel/libc-test/src/functional/fscanf.c:91
		TEST(i, y, -1, "%d != %d");
   12494:	01c12603          	lw	a2,28(sp)
   12498:	00042023          	sw	zero,0(s0)
   1249c:	fff00793          	li	a5,-1
   124a0:	00c13423          	sd	a2,8(sp)
   124a4:	02f60663          	beq	a2,a5,124d0 <fscanf_main+0x4f8>
/home/user/new-os-test/testsuits-for-oskernel/libc-test/src/functional/fscanf.c:91 (discriminator 2)
   124a8:	00000513          	li	a0,0
   124ac:	72c1a0ef          	jal	ra,2cbd8 <strerror>
   124b0:	00813603          	ld	a2,8(sp)
   124b4:	00050713          	mv	a4,a0
   124b8:	000555b7          	lui	a1,0x55
   124bc:	00055537          	lui	a0,0x55
   124c0:	fff00693          	li	a3,-1
   124c4:	0f058593          	addi	a1,a1,240 # 550f0 <CSWTCH.18+0x3638>
   124c8:	5b050513          	addi	a0,a0,1456 # 555b0 <CSWTCH.18+0x3af8>
   124cc:	2a9150ef          	jal	ra,27f74 <t_printf>
/home/user/new-os-test/testsuits-for-oskernel/libc-test/src/functional/fscanf.c:92
		TEST(i, ftell(f), 4, "%d != %d");
   124d0:	00042023          	sw	zero,0(s0)
   124d4:	00048513          	mv	a0,s1
   124d8:	2c8270ef          	jal	ra,397a0 <ftell>
   124dc:	0005061b          	sext.w	a2,a0
   124e0:	00400793          	li	a5,4
   124e4:	00c13423          	sd	a2,8(sp)
   124e8:	02f60663          	beq	a2,a5,12514 <fscanf_main+0x53c>
/home/user/new-os-test/testsuits-for-oskernel/libc-test/src/functional/fscanf.c:92 (discriminator 2)
   124ec:	00042503          	lw	a0,0(s0)
   124f0:	6e81a0ef          	jal	ra,2cbd8 <strerror>
   124f4:	00813603          	ld	a2,8(sp)
   124f8:	00050713          	mv	a4,a0
   124fc:	000555b7          	lui	a1,0x55
   12500:	00055537          	lui	a0,0x55
   12504:	00400693          	li	a3,4
   12508:	13058593          	addi	a1,a1,304 # 55130 <CSWTCH.18+0x3678>
   1250c:	5e850513          	addi	a0,a0,1512 # 555e8 <CSWTCH.18+0x3b30>
   12510:	265150ef          	jal	ra,27f74 <t_printf>
/home/user/new-os-test/testsuits-for-oskernel/libc-test/src/functional/fscanf.c:93
		TEST(i, feof(f), 0, "%d != %d");
   12514:	00042023          	sw	zero,0(s0)
   12518:	00048513          	mv	a0,s1
   1251c:	1b8260ef          	jal	ra,386d4 <feof>
   12520:	02050863          	beqz	a0,12550 <fscanf_main+0x578>
   12524:	00a13423          	sd	a0,8(sp)
/home/user/new-os-test/testsuits-for-oskernel/libc-test/src/functional/fscanf.c:93 (discriminator 2)
   12528:	00042503          	lw	a0,0(s0)
   1252c:	6ac1a0ef          	jal	ra,2cbd8 <strerror>
   12530:	00813603          	ld	a2,8(sp)
   12534:	00050713          	mv	a4,a0
   12538:	000555b7          	lui	a1,0x55
   1253c:	00055537          	lui	a0,0x55
   12540:	00000693          	li	a3,0
   12544:	3f058593          	addi	a1,a1,1008 # 553f0 <CSWTCH.18+0x3938>
   12548:	62050513          	addi	a0,a0,1568 # 55620 <CSWTCH.18+0x3b68>
   1254c:	229150ef          	jal	ra,27f74 <t_printf>
/home/user/new-os-test/testsuits-for-oskernel/libc-test/src/functional/fscanf.c:94
		TEST(i, fgetc(f), ' ', "%d != %d");
   12550:	00042023          	sw	zero,0(s0)
   12554:	00048513          	mv	a0,s1
   12558:	46c260ef          	jal	ra,389c4 <fgetc>
   1255c:	02000793          	li	a5,32
   12560:	00a13423          	sd	a0,8(sp)
   12564:	02f50663          	beq	a0,a5,12590 <fscanf_main+0x5b8>
/home/user/new-os-test/testsuits-for-oskernel/libc-test/src/functional/fscanf.c:94 (discriminator 2)
   12568:	00042503          	lw	a0,0(s0)
   1256c:	66c1a0ef          	jal	ra,2cbd8 <strerror>
   12570:	00813603          	ld	a2,8(sp)
   12574:	00050713          	mv	a4,a0
   12578:	000555b7          	lui	a1,0x55
   1257c:	00055537          	lui	a0,0x55
   12580:	02000693          	li	a3,32
   12584:	e3858593          	addi	a1,a1,-456 # 54e38 <CSWTCH.18+0x3380>
   12588:	65850513          	addi	a0,a0,1624 # 55658 <CSWTCH.18+0x3ba0>
   1258c:	1e9150ef          	jal	ra,27f74 <t_printf>
/home/user/new-os-test/testsuits-for-oskernel/libc-test/src/functional/fscanf.c:95
		rewind(f);
   12590:	00048513          	mv	a0,s1
   12594:	3b5270ef          	jal	ra,3a148 <rewind>
/home/user/new-os-test/testsuits-for-oskernel/libc-test/src/functional/fscanf.c:96
		TEST(i, fgetc(f), '0', "%d != %d");
   12598:	00048513          	mv	a0,s1
   1259c:	00042023          	sw	zero,0(s0)
   125a0:	424260ef          	jal	ra,389c4 <fgetc>
   125a4:	03000793          	li	a5,48
   125a8:	00a13423          	sd	a0,8(sp)
   125ac:	02f50663          	beq	a0,a5,125d8 <fscanf_main+0x600>
/home/user/new-os-test/testsuits-for-oskernel/libc-test/src/functional/fscanf.c:96 (discriminator 2)
   125b0:	00042503          	lw	a0,0(s0)
   125b4:	6241a0ef          	jal	ra,2cbd8 <strerror>
   125b8:	00813603          	ld	a2,8(sp)
   125bc:	00050713          	mv	a4,a0
   125c0:	000555b7          	lui	a1,0x55
   125c4:	00055537          	lui	a0,0x55
   125c8:	03000693          	li	a3,48
   125cc:	e3858593          	addi	a1,a1,-456 # 54e38 <CSWTCH.18+0x3380>
   125d0:	69050513          	addi	a0,a0,1680 # 55690 <CSWTCH.18+0x3bd8>
   125d4:	1a1150ef          	jal	ra,27f74 <t_printf>
/home/user/new-os-test/testsuits-for-oskernel/libc-test/src/functional/fscanf.c:97
		TEST(i, fgetc(f), 'x', "%d != %d");
   125d8:	00042023          	sw	zero,0(s0)
   125dc:	00048513          	mv	a0,s1
   125e0:	3e4260ef          	jal	ra,389c4 <fgetc>
   125e4:	07800793          	li	a5,120
   125e8:	00a13423          	sd	a0,8(sp)
   125ec:	02f50663          	beq	a0,a5,12618 <fscanf_main+0x640>
/home/user/new-os-test/testsuits-for-oskernel/libc-test/src/functional/fscanf.c:97 (discriminator 2)
   125f0:	00042503          	lw	a0,0(s0)
   125f4:	5e41a0ef          	jal	ra,2cbd8 <strerror>
   125f8:	00813603          	ld	a2,8(sp)
   125fc:	00050713          	mv	a4,a0
   12600:	000555b7          	lui	a1,0x55
   12604:	00055537          	lui	a0,0x55
   12608:	07800693          	li	a3,120
   1260c:	e3858593          	addi	a1,a1,-456 # 54e38 <CSWTCH.18+0x3380>
   12610:	6c850513          	addi	a0,a0,1736 # 556c8 <CSWTCH.18+0x3c10>
   12614:	161150ef          	jal	ra,27f74 <t_printf>
/home/user/new-os-test/testsuits-for-oskernel/libc-test/src/functional/fscanf.c:98
		TEST(i, fscanf(f, "%lf%n%c %d", &u, &x, a, &y), 3, "%d != %d");
   12618:	000555b7          	lui	a1,0x55
   1261c:	01c10793          	addi	a5,sp,28
   12620:	00042023          	sw	zero,0(s0)
   12624:	03010713          	addi	a4,sp,48
   12628:	01810693          	addi	a3,sp,24
   1262c:	02010613          	addi	a2,sp,32
   12630:	70058593          	addi	a1,a1,1792 # 55700 <CSWTCH.18+0x3c48>
   12634:	00048513          	mv	a0,s1
   12638:	719260ef          	jal	ra,39550 <fscanf>
   1263c:	00300793          	li	a5,3
   12640:	00a13423          	sd	a0,8(sp)
   12644:	02f50663          	beq	a0,a5,12670 <fscanf_main+0x698>
/home/user/new-os-test/testsuits-for-oskernel/libc-test/src/functional/fscanf.c:98 (discriminator 2)
   12648:	00042503          	lw	a0,0(s0)
   1264c:	58c1a0ef          	jal	ra,2cbd8 <strerror>
   12650:	00813603          	ld	a2,8(sp)
   12654:	00050713          	mv	a4,a0
   12658:	000555b7          	lui	a1,0x55
   1265c:	00055537          	lui	a0,0x55
   12660:	00300693          	li	a3,3
   12664:	71058593          	addi	a1,a1,1808 # 55710 <CSWTCH.18+0x3c58>
   12668:	73850513          	addi	a0,a0,1848 # 55738 <CSWTCH.18+0x3c80>
   1266c:	109150ef          	jal	ra,27f74 <t_printf>
/home/user/new-os-test/testsuits-for-oskernel/libc-test/src/functional/fscanf.c:99
		TEST(u, u, 1.0, "%g != %g");
   12670:	02013787          	fld	fa5,32(sp)
   12674:	8201b707          	fld	fa4,-2016(gp) # a86a8 <__SDATA_BEGIN__+0x20>
   12678:	00042023          	sw	zero,0(s0)
   1267c:	a2e7a7d3          	feq.d	a5,fa5,fa4
   12680:	02079c63          	bnez	a5,126b8 <fscanf_main+0x6e0>
/home/user/new-os-test/testsuits-for-oskernel/libc-test/src/functional/fscanf.c:99 (discriminator 2)
   12684:	00000513          	li	a0,0
   12688:	00f13427          	fsd	fa5,8(sp)
   1268c:	54c1a0ef          	jal	ra,2cbd8 <strerror>
   12690:	8201b707          	fld	fa4,-2016(gp) # a86a8 <__SDATA_BEGIN__+0x20>
   12694:	00813787          	fld	fa5,8(sp)
   12698:	00050713          	mv	a4,a0
   1269c:	e20706d3          	fmv.x.d	a3,fa4
   126a0:	e2078653          	fmv.x.d	a2,fa5
   126a4:	000555b7          	lui	a1,0x55
   126a8:	00055537          	lui	a0,0x55
   126ac:	53858593          	addi	a1,a1,1336 # 55538 <CSWTCH.18+0x3a80>
   126b0:	77050513          	addi	a0,a0,1904 # 55770 <CSWTCH.18+0x3cb8>
   126b4:	0c1150ef          	jal	ra,27f74 <t_printf>
/home/user/new-os-test/testsuits-for-oskernel/libc-test/src/functional/fscanf.c:100
		TEST(i, x, 1, "%d != %d");
   126b8:	01812603          	lw	a2,24(sp)
   126bc:	00042023          	sw	zero,0(s0)
   126c0:	00100793          	li	a5,1
   126c4:	00c13423          	sd	a2,8(sp)
   126c8:	02f60663          	beq	a2,a5,126f4 <fscanf_main+0x71c>
/home/user/new-os-test/testsuits-for-oskernel/libc-test/src/functional/fscanf.c:100 (discriminator 2)
   126cc:	00000513          	li	a0,0
   126d0:	5081a0ef          	jal	ra,2cbd8 <strerror>
   126d4:	00813603          	ld	a2,8(sp)
   126d8:	00050713          	mv	a4,a0
   126dc:	000a05b7          	lui	a1,0xa0
   126e0:	00055537          	lui	a0,0x55
   126e4:	00100693          	li	a3,1
   126e8:	b2858593          	addi	a1,a1,-1240 # 9fb28 <messages+0x1d0>
   126ec:	7a850513          	addi	a0,a0,1960 # 557a8 <CSWTCH.18+0x3cf0>
   126f0:	085150ef          	jal	ra,27f74 <t_printf>
/home/user/new-os-test/testsuits-for-oskernel/libc-test/src/functional/fscanf.c:101
		TEST(i, a[0], 'p', "%d != %d");
   126f4:	03014603          	lbu	a2,48(sp)
   126f8:	00042023          	sw	zero,0(s0)
   126fc:	07000793          	li	a5,112
   12700:	00c13423          	sd	a2,8(sp)
   12704:	02f60663          	beq	a2,a5,12730 <fscanf_main+0x758>
/home/user/new-os-test/testsuits-for-oskernel/libc-test/src/functional/fscanf.c:101 (discriminator 2)
   12708:	00000513          	li	a0,0
   1270c:	4cc1a0ef          	jal	ra,2cbd8 <strerror>
   12710:	00813603          	ld	a2,8(sp)
   12714:	00050713          	mv	a4,a0
   12718:	000555b7          	lui	a1,0x55
   1271c:	00055537          	lui	a0,0x55
   12720:	07000693          	li	a3,112
   12724:	7e058593          	addi	a1,a1,2016 # 557e0 <CSWTCH.18+0x3d28>
   12728:	7e850513          	addi	a0,a0,2024 # 557e8 <CSWTCH.18+0x3d30>
   1272c:	049150ef          	jal	ra,27f74 <t_printf>
/home/user/new-os-test/testsuits-for-oskernel/libc-test/src/functional/fscanf.c:102
		TEST(i, y, 12, "%d != %d");
   12730:	01c12603          	lw	a2,28(sp)
   12734:	00042023          	sw	zero,0(s0)
   12738:	00c00793          	li	a5,12
   1273c:	00c13423          	sd	a2,8(sp)
   12740:	02f60663          	beq	a2,a5,1276c <fscanf_main+0x794>
/home/user/new-os-test/testsuits-for-oskernel/libc-test/src/functional/fscanf.c:102 (discriminator 2)
   12744:	00000513          	li	a0,0
   12748:	4901a0ef          	jal	ra,2cbd8 <strerror>
   1274c:	00813603          	ld	a2,8(sp)
   12750:	00050713          	mv	a4,a0
   12754:	000555b7          	lui	a1,0x55
   12758:	00056537          	lui	a0,0x56
   1275c:	00c00693          	li	a3,12
   12760:	0f058593          	addi	a1,a1,240 # 550f0 <CSWTCH.18+0x3638>
   12764:	82050513          	addi	a0,a0,-2016 # 55820 <CSWTCH.18+0x3d68>
   12768:	00d150ef          	jal	ra,27f74 <t_printf>
/home/user/new-os-test/testsuits-for-oskernel/libc-test/src/functional/fscanf.c:103
		TEST(i, ftell(f), 7, "%d != %d");
   1276c:	00042023          	sw	zero,0(s0)
   12770:	00048513          	mv	a0,s1
   12774:	02c270ef          	jal	ra,397a0 <ftell>
   12778:	0005061b          	sext.w	a2,a0
   1277c:	00700793          	li	a5,7
   12780:	00c13423          	sd	a2,8(sp)
   12784:	02f60663          	beq	a2,a5,127b0 <fscanf_main+0x7d8>
/home/user/new-os-test/testsuits-for-oskernel/libc-test/src/functional/fscanf.c:103 (discriminator 2)
   12788:	00042503          	lw	a0,0(s0)
   1278c:	44c1a0ef          	jal	ra,2cbd8 <strerror>
   12790:	00813603          	ld	a2,8(sp)
   12794:	00050713          	mv	a4,a0
   12798:	000555b7          	lui	a1,0x55
   1279c:	00056537          	lui	a0,0x56
   127a0:	00700693          	li	a3,7
   127a4:	13058593          	addi	a1,a1,304 # 55130 <CSWTCH.18+0x3678>
   127a8:	85850513          	addi	a0,a0,-1960 # 55858 <CSWTCH.18+0x3da0>
   127ac:	7c8150ef          	jal	ra,27f74 <t_printf>
/home/user/new-os-test/testsuits-for-oskernel/libc-test/src/functional/fscanf.c:104
		TEST(i, !!feof(f), 1, "%d != %d");
   127b0:	00042023          	sw	zero,0(s0)
   127b4:	00048513          	mv	a0,s1
   127b8:	71d250ef          	jal	ra,386d4 <feof>
   127bc:	02051663          	bnez	a0,127e8 <fscanf_main+0x810>
/home/user/new-os-test/testsuits-for-oskernel/libc-test/src/functional/fscanf.c:104 (discriminator 2)
   127c0:	00042503          	lw	a0,0(s0)
   127c4:	4141a0ef          	jal	ra,2cbd8 <strerror>
   127c8:	00050713          	mv	a4,a0
   127cc:	000555b7          	lui	a1,0x55
   127d0:	00056537          	lui	a0,0x56
   127d4:	00100693          	li	a3,1
   127d8:	00000613          	li	a2,0
   127dc:	17858593          	addi	a1,a1,376 # 55178 <CSWTCH.18+0x36c0>
   127e0:	89050513          	addi	a0,a0,-1904 # 55890 <CSWTCH.18+0x3dd8>
   127e4:	790150ef          	jal	ra,27f74 <t_printf>
/home/user/new-os-test/testsuits-for-oskernel/libc-test/src/functional/fscanf.c:105
		fclose(f);
   127e8:	00048513          	mv	a0,s1
   127ec:	61d250ef          	jal	ra,38608 <fclose>
   127f0:	6900006f          	j	12e80 <fscanf_main+0xea8>
/home/user/new-os-test/testsuits-for-oskernel/libc-test/src/functional/fscanf.c:72
		x=y=-1;
   127f4:	fff00793          	li	a5,-1
/home/user/new-os-test/testsuits-for-oskernel/libc-test/src/functional/fscanf.c:73
		TEST(i, fscanf(f, "%10[^]]%n%10[].]%n", a, &x, b, &y), 2, "%d != %d");
   127f8:	000565b7          	lui	a1,0x56
/home/user/new-os-test/testsuits-for-oskernel/libc-test/src/functional/fscanf.c:72
		x=y=-1;
   127fc:	00f12e23          	sw	a5,28(sp)
   12800:	00f12c23          	sw	a5,24(sp)
/home/user/new-os-test/testsuits-for-oskernel/libc-test/src/functional/fscanf.c:73
		TEST(i, fscanf(f, "%10[^]]%n%10[].]%n", a, &x, b, &y), 2, "%d != %d");
   12804:	03010613          	addi	a2,sp,48
   12808:	01c10793          	addi	a5,sp,28
   1280c:	00042023          	sw	zero,0(s0)
   12810:	09810713          	addi	a4,sp,152
   12814:	01810693          	addi	a3,sp,24
   12818:	c8858593          	addi	a1,a1,-888 # 55c88 <CSWTCH.18+0x41d0>
   1281c:	535260ef          	jal	ra,39550 <fscanf>
   12820:	00200793          	li	a5,2
   12824:	00050613          	mv	a2,a0
   12828:	02f50863          	beq	a0,a5,12858 <fscanf_main+0x880>
/home/user/new-os-test/testsuits-for-oskernel/libc-test/src/functional/fscanf.c:73 (discriminator 2)
   1282c:	00042503          	lw	a0,0(s0)
   12830:	00c13423          	sd	a2,8(sp)
   12834:	3a41a0ef          	jal	ra,2cbd8 <strerror>
   12838:	00813603          	ld	a2,8(sp)
   1283c:	00050713          	mv	a4,a0
   12840:	000555b7          	lui	a1,0x55
   12844:	00055537          	lui	a0,0x55
   12848:	00200693          	li	a3,2
   1284c:	24058593          	addi	a1,a1,576 # 55240 <CSWTCH.18+0x3788>
   12850:	27050513          	addi	a0,a0,624 # 55270 <CSWTCH.18+0x37b8>
   12854:	720150ef          	jal	ra,27f74 <t_printf>
/home/user/new-os-test/testsuits-for-oskernel/libc-test/src/functional/fscanf.c:74
		TEST_S(a, "[abc123", "wrong result for %[^]]");
   12858:	00055937          	lui	s2,0x55
   1285c:	2a890593          	addi	a1,s2,680 # 552a8 <CSWTCH.18+0x37f0>
   12860:	03010513          	addi	a0,sp,48
   12864:	1992c0ef          	jal	ra,3f1fc <strcmp>
   12868:	02050063          	beqz	a0,12888 <fscanf_main+0x8b0>
/home/user/new-os-test/testsuits-for-oskernel/libc-test/src/functional/fscanf.c:74 (discriminator 2)
   1286c:	000556b7          	lui	a3,0x55
   12870:	00055537          	lui	a0,0x55
   12874:	2b068693          	addi	a3,a3,688 # 552b0 <CSWTCH.18+0x37f8>
   12878:	2a890613          	addi	a2,s2,680
   1287c:	03010593          	addi	a1,sp,48
   12880:	2c850513          	addi	a0,a0,712 # 552c8 <CSWTCH.18+0x3810>
   12884:	6f0150ef          	jal	ra,27f74 <t_printf>
/home/user/new-os-test/testsuits-for-oskernel/libc-test/src/functional/fscanf.c:75
		TEST_S(b, "]....", "wrong result for %[].]");
   12888:	00055937          	lui	s2,0x55
   1288c:	2f890593          	addi	a1,s2,760 # 552f8 <CSWTCH.18+0x3840>
   12890:	09810513          	addi	a0,sp,152
   12894:	1692c0ef          	jal	ra,3f1fc <strcmp>
   12898:	02050063          	beqz	a0,128b8 <fscanf_main+0x8e0>
/home/user/new-os-test/testsuits-for-oskernel/libc-test/src/functional/fscanf.c:75 (discriminator 2)
   1289c:	000556b7          	lui	a3,0x55
   128a0:	00055537          	lui	a0,0x55
   128a4:	30068693          	addi	a3,a3,768 # 55300 <CSWTCH.18+0x3848>
   128a8:	2f890613          	addi	a2,s2,760
   128ac:	09810593          	addi	a1,sp,152
   128b0:	31850513          	addi	a0,a0,792 # 55318 <CSWTCH.18+0x3860>
   128b4:	6c0150ef          	jal	ra,27f74 <t_printf>
/home/user/new-os-test/testsuits-for-oskernel/libc-test/src/functional/fscanf.c:76
		TEST(i, x, 7, "%d != %d");
   128b8:	01812603          	lw	a2,24(sp)
   128bc:	00042023          	sw	zero,0(s0)
   128c0:	00700793          	li	a5,7
   128c4:	00c13423          	sd	a2,8(sp)
   128c8:	02f60663          	beq	a2,a5,128f4 <fscanf_main+0x91c>
/home/user/new-os-test/testsuits-for-oskernel/libc-test/src/functional/fscanf.c:76 (discriminator 2)
   128cc:	00000513          	li	a0,0
   128d0:	3081a0ef          	jal	ra,2cbd8 <strerror>
   128d4:	00813603          	ld	a2,8(sp)
   128d8:	00050713          	mv	a4,a0
   128dc:	000a05b7          	lui	a1,0xa0
   128e0:	00055537          	lui	a0,0x55
   128e4:	00700693          	li	a3,7
   128e8:	b2858593          	addi	a1,a1,-1240 # 9fb28 <messages+0x1d0>
   128ec:	34850513          	addi	a0,a0,840 # 55348 <CSWTCH.18+0x3890>
   128f0:	684150ef          	jal	ra,27f74 <t_printf>
/home/user/new-os-test/testsuits-for-oskernel/libc-test/src/functional/fscanf.c:77
		TEST(i, y, 12, "%d != %d");
   128f4:	01c12603          	lw	a2,28(sp)
   128f8:	00042023          	sw	zero,0(s0)
   128fc:	00c00793          	li	a5,12
   12900:	00c13423          	sd	a2,8(sp)
   12904:	02f60663          	beq	a2,a5,12930 <fscanf_main+0x958>
/home/user/new-os-test/testsuits-for-oskernel/libc-test/src/functional/fscanf.c:77 (discriminator 2)
   12908:	00000513          	li	a0,0
   1290c:	2cc1a0ef          	jal	ra,2cbd8 <strerror>
   12910:	00813603          	ld	a2,8(sp)
   12914:	00050713          	mv	a4,a0
   12918:	000555b7          	lui	a1,0x55
   1291c:	00055537          	lui	a0,0x55
   12920:	00c00693          	li	a3,12
   12924:	0f058593          	addi	a1,a1,240 # 550f0 <CSWTCH.18+0x3638>
   12928:	38050513          	addi	a0,a0,896 # 55380 <CSWTCH.18+0x38c8>
   1292c:	648150ef          	jal	ra,27f74 <t_printf>
/home/user/new-os-test/testsuits-for-oskernel/libc-test/src/functional/fscanf.c:78
		TEST(i, ftell(f), 12, "%d != %d");
   12930:	00042023          	sw	zero,0(s0)
   12934:	00048513          	mv	a0,s1
   12938:	669260ef          	jal	ra,397a0 <ftell>
   1293c:	0005061b          	sext.w	a2,a0
   12940:	00c00793          	li	a5,12
   12944:	00c13423          	sd	a2,8(sp)
   12948:	02f60663          	beq	a2,a5,12974 <fscanf_main+0x99c>
/home/user/new-os-test/testsuits-for-oskernel/libc-test/src/functional/fscanf.c:78 (discriminator 2)
   1294c:	00042503          	lw	a0,0(s0)
   12950:	2881a0ef          	jal	ra,2cbd8 <strerror>
   12954:	00813603          	ld	a2,8(sp)
   12958:	00050713          	mv	a4,a0
   1295c:	000555b7          	lui	a1,0x55
   12960:	00055537          	lui	a0,0x55
   12964:	00c00693          	li	a3,12
   12968:	13058593          	addi	a1,a1,304 # 55130 <CSWTCH.18+0x3678>
   1296c:	3b850513          	addi	a0,a0,952 # 553b8 <CSWTCH.18+0x3900>
   12970:	604150ef          	jal	ra,27f74 <t_printf>
/home/user/new-os-test/testsuits-for-oskernel/libc-test/src/functional/fscanf.c:79
		TEST(i, feof(f), 0, "%d != %d");
   12974:	00042023          	sw	zero,0(s0)
   12978:	00048513          	mv	a0,s1
   1297c:	559250ef          	jal	ra,386d4 <feof>
   12980:	02050863          	beqz	a0,129b0 <fscanf_main+0x9d8>
   12984:	00a13423          	sd	a0,8(sp)
/home/user/new-os-test/testsuits-for-oskernel/libc-test/src/functional/fscanf.c:79 (discriminator 2)
   12988:	00042503          	lw	a0,0(s0)
   1298c:	24c1a0ef          	jal	ra,2cbd8 <strerror>
   12990:	00813603          	ld	a2,8(sp)
   12994:	00050713          	mv	a4,a0
   12998:	000555b7          	lui	a1,0x55
   1299c:	00055537          	lui	a0,0x55
   129a0:	00000693          	li	a3,0
   129a4:	3f058593          	addi	a1,a1,1008 # 553f0 <CSWTCH.18+0x3938>
   129a8:	3f850513          	addi	a0,a0,1016 # 553f8 <CSWTCH.18+0x3940>
   129ac:	5c8150ef          	jal	ra,27f74 <t_printf>
/home/user/new-os-test/testsuits-for-oskernel/libc-test/src/functional/fscanf.c:80
		TEST(i, fgetc(f), 'x', "%d != %d");
   129b0:	00042023          	sw	zero,0(s0)
   129b4:	00048513          	mv	a0,s1
   129b8:	00c260ef          	jal	ra,389c4 <fgetc>
   129bc:	07800793          	li	a5,120
   129c0:	00a13423          	sd	a0,8(sp)
   129c4:	02f50663          	beq	a0,a5,129f0 <fscanf_main+0xa18>
/home/user/new-os-test/testsuits-for-oskernel/libc-test/src/functional/fscanf.c:80 (discriminator 2)
   129c8:	00042503          	lw	a0,0(s0)
   129cc:	20c1a0ef          	jal	ra,2cbd8 <strerror>
   129d0:	00813603          	ld	a2,8(sp)
   129d4:	00050713          	mv	a4,a0
   129d8:	000555b7          	lui	a1,0x55
   129dc:	00055537          	lui	a0,0x55
   129e0:	07800693          	li	a3,120
   129e4:	e3858593          	addi	a1,a1,-456 # 54e38 <CSWTCH.18+0x3380>
   129e8:	43050513          	addi	a0,a0,1072 # 55430 <CSWTCH.18+0x3978>
   129ec:	588150ef          	jal	ra,27f74 <t_printf>
/home/user/new-os-test/testsuits-for-oskernel/libc-test/src/functional/fscanf.c:81
		fclose(f);
   129f0:	00048513          	mv	a0,s1
   129f4:	415250ef          	jal	ra,38608 <fclose>
   129f8:	4480006f          	j	12e40 <fscanf_main+0xe68>
/home/user/new-os-test/testsuits-for-oskernel/libc-test/src/functional/fscanf.c:62
		TEST(i, fscanf(f, " %n%*d%n", &x, &y), 0, "%d != %d");
   129fc:	000565b7          	lui	a1,0x56
/home/user/new-os-test/testsuits-for-oskernel/libc-test/src/functional/fscanf.c:61
		x=y=-1;
   12a00:	fff00793          	li	a5,-1
/home/user/new-os-test/testsuits-for-oskernel/libc-test/src/functional/fscanf.c:62
		TEST(i, fscanf(f, " %n%*d%n", &x, &y), 0, "%d != %d");
   12a04:	01810613          	addi	a2,sp,24
   12a08:	00042023          	sw	zero,0(s0)
   12a0c:	01c10693          	addi	a3,sp,28
   12a10:	ca058593          	addi	a1,a1,-864 # 55ca0 <CSWTCH.18+0x41e8>
/home/user/new-os-test/testsuits-for-oskernel/libc-test/src/functional/fscanf.c:61
		x=y=-1;
   12a14:	00f12e23          	sw	a5,28(sp)
   12a18:	00f12c23          	sw	a5,24(sp)
/home/user/new-os-test/testsuits-for-oskernel/libc-test/src/functional/fscanf.c:62
		TEST(i, fscanf(f, " %n%*d%n", &x, &y), 0, "%d != %d");
   12a1c:	335260ef          	jal	ra,39550 <fscanf>
   12a20:	00050613          	mv	a2,a0
   12a24:	02050863          	beqz	a0,12a54 <fscanf_main+0xa7c>
/home/user/new-os-test/testsuits-for-oskernel/libc-test/src/functional/fscanf.c:62 (discriminator 2)
   12a28:	00042503          	lw	a0,0(s0)
   12a2c:	00c13423          	sd	a2,8(sp)
   12a30:	1a81a0ef          	jal	ra,2cbd8 <strerror>
   12a34:	00813603          	ld	a2,8(sp)
   12a38:	00050713          	mv	a4,a0
   12a3c:	000555b7          	lui	a1,0x55
   12a40:	00055537          	lui	a0,0x55
   12a44:	00000693          	li	a3,0
   12a48:	06058593          	addi	a1,a1,96 # 55060 <CSWTCH.18+0x35a8>
   12a4c:	08050513          	addi	a0,a0,128 # 55080 <CSWTCH.18+0x35c8>
   12a50:	524150ef          	jal	ra,27f74 <t_printf>
/home/user/new-os-test/testsuits-for-oskernel/libc-test/src/functional/fscanf.c:63
		TEST(i, x, 6, "%d != %d");
   12a54:	01812603          	lw	a2,24(sp)
   12a58:	00042023          	sw	zero,0(s0)
   12a5c:	00600793          	li	a5,6
   12a60:	00c13423          	sd	a2,8(sp)
   12a64:	02f60663          	beq	a2,a5,12a90 <fscanf_main+0xab8>
/home/user/new-os-test/testsuits-for-oskernel/libc-test/src/functional/fscanf.c:63 (discriminator 2)
   12a68:	00000513          	li	a0,0
   12a6c:	16c1a0ef          	jal	ra,2cbd8 <strerror>
   12a70:	00813603          	ld	a2,8(sp)
   12a74:	00050713          	mv	a4,a0
   12a78:	000a05b7          	lui	a1,0xa0
   12a7c:	00055537          	lui	a0,0x55
   12a80:	00600693          	li	a3,6
   12a84:	b2858593          	addi	a1,a1,-1240 # 9fb28 <messages+0x1d0>
   12a88:	0b850513          	addi	a0,a0,184 # 550b8 <CSWTCH.18+0x3600>
   12a8c:	4e8150ef          	jal	ra,27f74 <t_printf>
/home/user/new-os-test/testsuits-for-oskernel/libc-test/src/functional/fscanf.c:64
		TEST(i, y, 8, "%d != %d");
   12a90:	01c12603          	lw	a2,28(sp)
   12a94:	00042023          	sw	zero,0(s0)
   12a98:	00800793          	li	a5,8
   12a9c:	00c13423          	sd	a2,8(sp)
   12aa0:	02f60663          	beq	a2,a5,12acc <fscanf_main+0xaf4>
/home/user/new-os-test/testsuits-for-oskernel/libc-test/src/functional/fscanf.c:64 (discriminator 2)
   12aa4:	00000513          	li	a0,0
   12aa8:	1301a0ef          	jal	ra,2cbd8 <strerror>
   12aac:	00813603          	ld	a2,8(sp)
   12ab0:	00050713          	mv	a4,a0
   12ab4:	000555b7          	lui	a1,0x55
   12ab8:	00055537          	lui	a0,0x55
   12abc:	00800693          	li	a3,8
   12ac0:	0f058593          	addi	a1,a1,240 # 550f0 <CSWTCH.18+0x3638>
   12ac4:	0f850513          	addi	a0,a0,248 # 550f8 <CSWTCH.18+0x3640>
   12ac8:	4ac150ef          	jal	ra,27f74 <t_printf>
/home/user/new-os-test/testsuits-for-oskernel/libc-test/src/functional/fscanf.c:65
		TEST(i, ftell(f), 8, "%d != %d");
   12acc:	00042023          	sw	zero,0(s0)
   12ad0:	00048513          	mv	a0,s1
   12ad4:	4cd260ef          	jal	ra,397a0 <ftell>
   12ad8:	0005061b          	sext.w	a2,a0
   12adc:	00800793          	li	a5,8
   12ae0:	00c13423          	sd	a2,8(sp)
   12ae4:	02f60663          	beq	a2,a5,12b10 <fscanf_main+0xb38>
/home/user/new-os-test/testsuits-for-oskernel/libc-test/src/functional/fscanf.c:65 (discriminator 2)
   12ae8:	00042503          	lw	a0,0(s0)
   12aec:	0ec1a0ef          	jal	ra,2cbd8 <strerror>
   12af0:	00813603          	ld	a2,8(sp)
   12af4:	00050713          	mv	a4,a0
   12af8:	000555b7          	lui	a1,0x55
   12afc:	00055537          	lui	a0,0x55
   12b00:	00800693          	li	a3,8
   12b04:	13058593          	addi	a1,a1,304 # 55130 <CSWTCH.18+0x3678>
   12b08:	14050513          	addi	a0,a0,320 # 55140 <CSWTCH.18+0x3688>
   12b0c:	468150ef          	jal	ra,27f74 <t_printf>
/home/user/new-os-test/testsuits-for-oskernel/libc-test/src/functional/fscanf.c:66
		TEST(i, !!feof(f), 1, "%d != %d");
   12b10:	00042023          	sw	zero,0(s0)
   12b14:	00048513          	mv	a0,s1
   12b18:	3bd250ef          	jal	ra,386d4 <feof>
   12b1c:	02051663          	bnez	a0,12b48 <fscanf_main+0xb70>
/home/user/new-os-test/testsuits-for-oskernel/libc-test/src/functional/fscanf.c:66 (discriminator 2)
   12b20:	00042503          	lw	a0,0(s0)
   12b24:	0b41a0ef          	jal	ra,2cbd8 <strerror>
   12b28:	00050713          	mv	a4,a0
   12b2c:	000555b7          	lui	a1,0x55
   12b30:	00055537          	lui	a0,0x55
   12b34:	00100693          	li	a3,1
   12b38:	00000613          	li	a2,0
   12b3c:	17858593          	addi	a1,a1,376 # 55178 <CSWTCH.18+0x36c0>
   12b40:	18850513          	addi	a0,a0,392 # 55188 <CSWTCH.18+0x36d0>
   12b44:	430150ef          	jal	ra,27f74 <t_printf>
/home/user/new-os-test/testsuits-for-oskernel/libc-test/src/functional/fscanf.c:67
		fclose(f);
   12b48:	00048513          	mv	a0,s1
   12b4c:	2bd250ef          	jal	ra,38608 <fclose>
   12b50:	2b00006f          	j	12e00 <fscanf_main+0xe28>
/home/user/new-os-test/testsuits-for-oskernel/libc-test/src/functional/fscanf.c:45
	TEST(i, write(p[1], "hello, world\n", 13), 13, "write error %d!=%d (%s)");
   12b54:	02c12503          	lw	a0,44(sp)
   12b58:	000565b7          	lui	a1,0x56
   12b5c:	00d00613          	li	a2,13
   12b60:	00042023          	sw	zero,0(s0)
   12b64:	cb058593          	addi	a1,a1,-848 # 55cb0 <CSWTCH.18+0x41f8>
   12b68:	645320ef          	jal	ra,459ac <write>
   12b6c:	0005061b          	sext.w	a2,a0
   12b70:	00d00793          	li	a5,13
   12b74:	02f60863          	beq	a2,a5,12ba4 <fscanf_main+0xbcc>
/home/user/new-os-test/testsuits-for-oskernel/libc-test/src/functional/fscanf.c:45 (discriminator 2)
   12b78:	00042503          	lw	a0,0(s0)
   12b7c:	00c13423          	sd	a2,8(sp)
   12b80:	0581a0ef          	jal	ra,2cbd8 <strerror>
   12b84:	00813603          	ld	a2,8(sp)
   12b88:	00050713          	mv	a4,a0
   12b8c:	000555b7          	lui	a1,0x55
   12b90:	00055537          	lui	a0,0x55
   12b94:	00d00693          	li	a3,13
   12b98:	cb058593          	addi	a1,a1,-848 # 54cb0 <CSWTCH.18+0x31f8>
   12b9c:	cd850513          	addi	a0,a0,-808 # 54cd8 <CSWTCH.18+0x3220>
   12ba0:	3d4150ef          	jal	ra,27f74 <t_printf>
/home/user/new-os-test/testsuits-for-oskernel/libc-test/src/functional/fscanf.c:46
	TEST(i, fscanf(f, "%s %[own]", a, b), 2, "got %d fields, expected %d");
   12ba4:	000555b7          	lui	a1,0x55
   12ba8:	00042023          	sw	zero,0(s0)
   12bac:	09810693          	addi	a3,sp,152
   12bb0:	03010613          	addi	a2,sp,48
   12bb4:	d2058593          	addi	a1,a1,-736 # 54d20 <CSWTCH.18+0x3268>
   12bb8:	00048513          	mv	a0,s1
   12bbc:	195260ef          	jal	ra,39550 <fscanf>
   12bc0:	00200793          	li	a5,2
   12bc4:	00a13423          	sd	a0,8(sp)
   12bc8:	02f50663          	beq	a0,a5,12bf4 <fscanf_main+0xc1c>
/home/user/new-os-test/testsuits-for-oskernel/libc-test/src/functional/fscanf.c:46 (discriminator 2)
   12bcc:	00042503          	lw	a0,0(s0)
   12bd0:	0081a0ef          	jal	ra,2cbd8 <strerror>
   12bd4:	00813603          	ld	a2,8(sp)
   12bd8:	00050713          	mv	a4,a0
   12bdc:	000555b7          	lui	a1,0x55
   12be0:	00055537          	lui	a0,0x55
   12be4:	00200693          	li	a3,2
   12be8:	d3058593          	addi	a1,a1,-720 # 54d30 <CSWTCH.18+0x3278>
   12bec:	d5050513          	addi	a0,a0,-688 # 54d50 <CSWTCH.18+0x3298>
   12bf0:	384150ef          	jal	ra,27f74 <t_printf>
/home/user/new-os-test/testsuits-for-oskernel/libc-test/src/functional/fscanf.c:47
	TEST_S(a, "hello,", "wrong result for %s");
   12bf4:	00055937          	lui	s2,0x55
   12bf8:	d9890593          	addi	a1,s2,-616 # 54d98 <CSWTCH.18+0x32e0>
   12bfc:	03010513          	addi	a0,sp,48
   12c00:	5fc2c0ef          	jal	ra,3f1fc <strcmp>
   12c04:	02050063          	beqz	a0,12c24 <fscanf_main+0xc4c>
/home/user/new-os-test/testsuits-for-oskernel/libc-test/src/functional/fscanf.c:47 (discriminator 2)
   12c08:	000556b7          	lui	a3,0x55
   12c0c:	00055537          	lui	a0,0x55
   12c10:	da068693          	addi	a3,a3,-608 # 54da0 <CSWTCH.18+0x32e8>
   12c14:	d9890613          	addi	a2,s2,-616
   12c18:	03010593          	addi	a1,sp,48
   12c1c:	db850513          	addi	a0,a0,-584 # 54db8 <CSWTCH.18+0x3300>
   12c20:	354150ef          	jal	ra,27f74 <t_printf>
/home/user/new-os-test/testsuits-for-oskernel/libc-test/src/functional/fscanf.c:48
	TEST_S(b, "wo", "wrong result for %[own]");
   12c24:	00055937          	lui	s2,0x55
   12c28:	de890593          	addi	a1,s2,-536 # 54de8 <CSWTCH.18+0x3330>
   12c2c:	09810513          	addi	a0,sp,152
   12c30:	5cc2c0ef          	jal	ra,3f1fc <strcmp>
   12c34:	02050063          	beqz	a0,12c54 <fscanf_main+0xc7c>
/home/user/new-os-test/testsuits-for-oskernel/libc-test/src/functional/fscanf.c:48 (discriminator 2)
   12c38:	000556b7          	lui	a3,0x55
   12c3c:	00055537          	lui	a0,0x55
   12c40:	df068693          	addi	a3,a3,-528 # 54df0 <CSWTCH.18+0x3338>
   12c44:	de890613          	addi	a2,s2,-536
   12c48:	09810593          	addi	a1,sp,152
   12c4c:	e0850513          	addi	a0,a0,-504 # 54e08 <CSWTCH.18+0x3350>
   12c50:	324150ef          	jal	ra,27f74 <t_printf>
/home/user/new-os-test/testsuits-for-oskernel/libc-test/src/functional/fscanf.c:49
	TEST(i, fgetc(f), 'r', "'%c' != '%c') (%s)");
   12c54:	00042023          	sw	zero,0(s0)
   12c58:	00048513          	mv	a0,s1
   12c5c:	569250ef          	jal	ra,389c4 <fgetc>
   12c60:	07200793          	li	a5,114
   12c64:	00a13423          	sd	a0,8(sp)
   12c68:	02f50663          	beq	a0,a5,12c94 <fscanf_main+0xcbc>
/home/user/new-os-test/testsuits-for-oskernel/libc-test/src/functional/fscanf.c:49 (discriminator 2)
   12c6c:	00042503          	lw	a0,0(s0)
   12c70:	769190ef          	jal	ra,2cbd8 <strerror>
   12c74:	00813603          	ld	a2,8(sp)
   12c78:	00050713          	mv	a4,a0
   12c7c:	000555b7          	lui	a1,0x55
   12c80:	00055537          	lui	a0,0x55
   12c84:	07200693          	li	a3,114
   12c88:	e3858593          	addi	a1,a1,-456 # 54e38 <CSWTCH.18+0x3380>
   12c8c:	e4850513          	addi	a0,a0,-440 # 54e48 <CSWTCH.18+0x3390>
   12c90:	2e4150ef          	jal	ra,27f74 <t_printf>
/home/user/new-os-test/testsuits-for-oskernel/libc-test/src/functional/fscanf.c:51
	TEST(i, write(p[1], " 0x12 0x34", 10), 10, "write error %d!=%d (%s)");
   12c94:	02c12503          	lw	a0,44(sp)
   12c98:	000555b7          	lui	a1,0x55
   12c9c:	00a00613          	li	a2,10
   12ca0:	00042023          	sw	zero,0(s0)
   12ca4:	e8858593          	addi	a1,a1,-376 # 54e88 <CSWTCH.18+0x33d0>
   12ca8:	505320ef          	jal	ra,459ac <write>
   12cac:	0005061b          	sext.w	a2,a0
   12cb0:	00a00793          	li	a5,10
   12cb4:	00c13423          	sd	a2,8(sp)
   12cb8:	02f60663          	beq	a2,a5,12ce4 <fscanf_main+0xd0c>
/home/user/new-os-test/testsuits-for-oskernel/libc-test/src/functional/fscanf.c:51 (discriminator 2)
   12cbc:	00042503          	lw	a0,0(s0)
   12cc0:	719190ef          	jal	ra,2cbd8 <strerror>
   12cc4:	00813603          	ld	a2,8(sp)
   12cc8:	00050713          	mv	a4,a0
   12ccc:	000555b7          	lui	a1,0x55
   12cd0:	00055537          	lui	a0,0x55
   12cd4:	00a00693          	li	a3,10
   12cd8:	e9858593          	addi	a1,a1,-360 # 54e98 <CSWTCH.18+0x33e0>
   12cdc:	eb850513          	addi	a0,a0,-328 # 54eb8 <CSWTCH.18+0x3400>
   12ce0:	294150ef          	jal	ra,27f74 <t_printf>
/home/user/new-os-test/testsuits-for-oskernel/libc-test/src/functional/fscanf.c:52
	TEST(i, fscanf(f, "ld %5i%2i", &x, &y), 1, "got %d fields, expected %d");
   12ce4:	000555b7          	lui	a1,0x55
   12ce8:	00042023          	sw	zero,0(s0)
   12cec:	01c10693          	addi	a3,sp,28
   12cf0:	01810613          	addi	a2,sp,24
   12cf4:	f0058593          	addi	a1,a1,-256 # 54f00 <CSWTCH.18+0x3448>
   12cf8:	00048513          	mv	a0,s1
   12cfc:	055260ef          	jal	ra,39550 <fscanf>
   12d00:	00100793          	li	a5,1
   12d04:	00a13423          	sd	a0,8(sp)
   12d08:	02f50663          	beq	a0,a5,12d34 <fscanf_main+0xd5c>
/home/user/new-os-test/testsuits-for-oskernel/libc-test/src/functional/fscanf.c:52 (discriminator 2)
   12d0c:	00042503          	lw	a0,0(s0)
   12d10:	6c9190ef          	jal	ra,2cbd8 <strerror>
   12d14:	00813603          	ld	a2,8(sp)
   12d18:	00050713          	mv	a4,a0
   12d1c:	000555b7          	lui	a1,0x55
   12d20:	00055537          	lui	a0,0x55
   12d24:	00100693          	li	a3,1
   12d28:	f1058593          	addi	a1,a1,-240 # 54f10 <CSWTCH.18+0x3458>
   12d2c:	f3050513          	addi	a0,a0,-208 # 54f30 <CSWTCH.18+0x3478>
   12d30:	244150ef          	jal	ra,27f74 <t_printf>
/home/user/new-os-test/testsuits-for-oskernel/libc-test/src/functional/fscanf.c:53
	TEST(i, x, 0x12, "%d != %d");
   12d34:	01812603          	lw	a2,24(sp)
   12d38:	00042023          	sw	zero,0(s0)
   12d3c:	01200793          	li	a5,18
   12d40:	00c13423          	sd	a2,8(sp)
   12d44:	02f60663          	beq	a2,a5,12d70 <fscanf_main+0xd98>
/home/user/new-os-test/testsuits-for-oskernel/libc-test/src/functional/fscanf.c:53 (discriminator 2)
   12d48:	00000513          	li	a0,0
   12d4c:	68d190ef          	jal	ra,2cbd8 <strerror>
   12d50:	00813603          	ld	a2,8(sp)
   12d54:	00050713          	mv	a4,a0
   12d58:	000a05b7          	lui	a1,0xa0
   12d5c:	00055537          	lui	a0,0x55
   12d60:	01200693          	li	a3,18
   12d64:	b2858593          	addi	a1,a1,-1240 # 9fb28 <messages+0x1d0>
   12d68:	f7850513          	addi	a0,a0,-136 # 54f78 <CSWTCH.18+0x34c0>
   12d6c:	208150ef          	jal	ra,27f74 <t_printf>
/home/user/new-os-test/testsuits-for-oskernel/libc-test/src/functional/fscanf.c:54
	TEST(i, fgetc(f), '3', "'%c' != '%c'");
   12d70:	00042023          	sw	zero,0(s0)
   12d74:	00048513          	mv	a0,s1
   12d78:	44d250ef          	jal	ra,389c4 <fgetc>
   12d7c:	03300793          	li	a5,51
   12d80:	00a13423          	sd	a0,8(sp)
   12d84:	02f50663          	beq	a0,a5,12db0 <fscanf_main+0xdd8>
/home/user/new-os-test/testsuits-for-oskernel/libc-test/src/functional/fscanf.c:54 (discriminator 2)
   12d88:	00042503          	lw	a0,0(s0)
   12d8c:	64d190ef          	jal	ra,2cbd8 <strerror>
   12d90:	00813603          	ld	a2,8(sp)
   12d94:	00050713          	mv	a4,a0
   12d98:	000555b7          	lui	a1,0x55
   12d9c:	00055537          	lui	a0,0x55
   12da0:	03300693          	li	a3,51
   12da4:	e3858593          	addi	a1,a1,-456 # 54e38 <CSWTCH.18+0x3380>
   12da8:	fb050513          	addi	a0,a0,-80 # 54fb0 <CSWTCH.18+0x34f8>
   12dac:	1c8150ef          	jal	ra,27f74 <t_printf>
/home/user/new-os-test/testsuits-for-oskernel/libc-test/src/functional/fscanf.c:56
	fclose(f);
   12db0:	00048513          	mv	a0,s1
   12db4:	055250ef          	jal	ra,38608 <fclose>
/home/user/new-os-test/testsuits-for-oskernel/libc-test/src/functional/fscanf.c:57
	close(p[1]);
   12db8:	02c12503          	lw	a0,44(sp)
   12dbc:	1ad320ef          	jal	ra,45768 <close>
/home/user/new-os-test/testsuits-for-oskernel/libc-test/src/functional/fscanf.c:59
	TEST(i, !!(f=writetemp("      42")), 1, "failed to make temp file");
   12dc0:	00055537          	lui	a0,0x55
   12dc4:	00042023          	sw	zero,0(s0)
   12dc8:	fe850513          	addi	a0,a0,-24 # 54fe8 <CSWTCH.18+0x3530>
   12dcc:	0a9150ef          	jal	ra,28674 <writetemp>
   12dd0:	00050493          	mv	s1,a0
   12dd4:	c20514e3          	bnez	a0,129fc <fscanf_main+0xa24>
/home/user/new-os-test/testsuits-for-oskernel/libc-test/src/functional/fscanf.c:59 (discriminator 2)
   12dd8:	00042503          	lw	a0,0(s0)
   12ddc:	5fd190ef          	jal	ra,2cbd8 <strerror>
   12de0:	00050713          	mv	a4,a0
   12de4:	000555b7          	lui	a1,0x55
   12de8:	00055537          	lui	a0,0x55
   12dec:	00100693          	li	a3,1
   12df0:	00000613          	li	a2,0
   12df4:	ff858593          	addi	a1,a1,-8 # 54ff8 <CSWTCH.18+0x3540>
   12df8:	01850513          	addi	a0,a0,24 # 55018 <CSWTCH.18+0x3560>
   12dfc:	178150ef          	jal	ra,27f74 <t_printf>
/home/user/new-os-test/testsuits-for-oskernel/libc-test/src/functional/fscanf.c:70
	TEST(i, !!(f=writetemp("[abc123]....x")), 1, "failed to make temp file");
   12e00:	00055537          	lui	a0,0x55
   12e04:	00042023          	sw	zero,0(s0)
   12e08:	1c050513          	addi	a0,a0,448 # 551c0 <CSWTCH.18+0x3708>
   12e0c:	069150ef          	jal	ra,28674 <writetemp>
   12e10:	00050493          	mv	s1,a0
   12e14:	9e0510e3          	bnez	a0,127f4 <fscanf_main+0x81c>
/home/user/new-os-test/testsuits-for-oskernel/libc-test/src/functional/fscanf.c:70 (discriminator 2)
   12e18:	00042503          	lw	a0,0(s0)
   12e1c:	5bd190ef          	jal	ra,2cbd8 <strerror>
   12e20:	00050713          	mv	a4,a0
   12e24:	000555b7          	lui	a1,0x55
   12e28:	00055537          	lui	a0,0x55
   12e2c:	00100693          	li	a3,1
   12e30:	00000613          	li	a2,0
   12e34:	1d058593          	addi	a1,a1,464 # 551d0 <CSWTCH.18+0x3718>
   12e38:	1f850513          	addi	a0,a0,504 # 551f8 <CSWTCH.18+0x3740>
   12e3c:	138150ef          	jal	ra,27f74 <t_printf>
/home/user/new-os-test/testsuits-for-oskernel/libc-test/src/functional/fscanf.c:84
	TEST(i, !!(f=writetemp("0x1p 12")), 1, "failed to make temp file");
   12e40:	00055537          	lui	a0,0x55
   12e44:	00042023          	sw	zero,0(s0)
   12e48:	46850513          	addi	a0,a0,1128 # 55468 <CSWTCH.18+0x39b0>
   12e4c:	029150ef          	jal	ra,28674 <writetemp>
   12e50:	00050493          	mv	s1,a0
   12e54:	d4051c63          	bnez	a0,123ac <fscanf_main+0x3d4>
/home/user/new-os-test/testsuits-for-oskernel/libc-test/src/functional/fscanf.c:84 (discriminator 2)
   12e58:	00042503          	lw	a0,0(s0)
   12e5c:	57d190ef          	jal	ra,2cbd8 <strerror>
   12e60:	00050713          	mv	a4,a0
   12e64:	000555b7          	lui	a1,0x55
   12e68:	00055537          	lui	a0,0x55
   12e6c:	00100693          	li	a3,1
   12e70:	00000613          	li	a2,0
   12e74:	47058593          	addi	a1,a1,1136 # 55470 <CSWTCH.18+0x39b8>
   12e78:	49050513          	addi	a0,a0,1168 # 55490 <CSWTCH.18+0x39d8>
   12e7c:	0f8150ef          	jal	ra,27f74 <t_printf>
/home/user/new-os-test/testsuits-for-oskernel/libc-test/src/functional/fscanf.c:108
	TEST(i, !!(f=writetemp("0x.1p4    012")), 1, "failed to make temp file");
   12e80:	00056537          	lui	a0,0x56
   12e84:	00042023          	sw	zero,0(s0)
   12e88:	8c850513          	addi	a0,a0,-1848 # 558c8 <CSWTCH.18+0x3e10>
   12e8c:	7e8150ef          	jal	ra,28674 <writetemp>
   12e90:	00050493          	mv	s1,a0
   12e94:	b6051463          	bnez	a0,121fc <fscanf_main+0x224>
/home/user/new-os-test/testsuits-for-oskernel/libc-test/src/functional/fscanf.c:108 (discriminator 2)
   12e98:	00042503          	lw	a0,0(s0)
   12e9c:	53d190ef          	jal	ra,2cbd8 <strerror>
   12ea0:	00050713          	mv	a4,a0
   12ea4:	000565b7          	lui	a1,0x56
   12ea8:	00056537          	lui	a0,0x56
   12eac:	00100693          	li	a3,1
   12eb0:	00000613          	li	a2,0
   12eb4:	8d858593          	addi	a1,a1,-1832 # 558d8 <CSWTCH.18+0x3e20>
   12eb8:	90050513          	addi	a0,a0,-1792 # 55900 <CSWTCH.18+0x3e48>
   12ebc:	0b8150ef          	jal	ra,27f74 <t_printf>
/home/user/new-os-test/testsuits-for-oskernel/libc-test/src/functional/fscanf.c:121
	TEST(i, !!(f=writetemp("0xx")), 1, "failed to make temp file");
   12ec0:	00056537          	lui	a0,0x56
   12ec4:	00042023          	sw	zero,0(s0)
   12ec8:	ac050513          	addi	a0,a0,-1344 # 55ac0 <CSWTCH.18+0x4008>
   12ecc:	7a8150ef          	jal	ra,28674 <writetemp>
   12ed0:	00050493          	mv	s1,a0
   12ed4:	00050463          	beqz	a0,12edc <fscanf_main+0xf04>
   12ed8:	9c8ff06f          	j	120a0 <fscanf_main+0xc8>
/home/user/new-os-test/testsuits-for-oskernel/libc-test/src/functional/fscanf.c:121 (discriminator 2)
   12edc:	00042503          	lw	a0,0(s0)
   12ee0:	4f9190ef          	jal	ra,2cbd8 <strerror>
   12ee4:	00050713          	mv	a4,a0
   12ee8:	000565b7          	lui	a1,0x56
   12eec:	00056537          	lui	a0,0x56
   12ef0:	00100693          	li	a3,1
   12ef4:	00000613          	li	a2,0
   12ef8:	ac858593          	addi	a1,a1,-1336 # 55ac8 <CSWTCH.18+0x4010>
   12efc:	ae050513          	addi	a0,a0,-1312 # 55ae0 <CSWTCH.18+0x4028>
   12f00:	074150ef          	jal	ra,27f74 <t_printf>
/home/user/new-os-test/testsuits-for-oskernel/libc-test/src/functional/fscanf.c:132
	return t_status;
   12f04:	bb01a503          	lw	a0,-1104(gp) # a8a38 <_edata>
   12f08:	0005051b          	sext.w	a0,a0
   12f0c:	97cff06f          	j	12088 <fscanf_main+0xb0>

0000000000012f10 <fwscanf_main>:
/home/user/new-os-test/testsuits-for-oskernel/libc-test/src/functional/fwscanf.c:36
	}
	return f;
}

int main(void)
{
   12f10:	ef010113          	addi	sp,sp,-272
   12f14:	10813023          	sd	s0,256(sp)
   12f18:	10113423          	sd	ra,264(sp)
   12f1c:	0e913c23          	sd	s1,248(sp)
   12f20:	0f213823          	sd	s2,240(sp)
/home/user/new-os-test/testsuits-for-oskernel/libc-test/src/functional/fwscanf.c:42
	int i, x, y;
	double u;
	char a[100], b[100];
	FILE *f;

	TEST(i, !!(f=writetemp("      42")), 1, "failed to make temp file");
   12f24:	45d190ef          	jal	ra,2cb80 <__errno_location>
   12f28:	00050413          	mv	s0,a0
   12f2c:	00052023          	sw	zero,0(a0)
   12f30:	00055537          	lui	a0,0x55
   12f34:	fe850513          	addi	a0,a0,-24 # 54fe8 <CSWTCH.18+0x3530>
   12f38:	7ac150ef          	jal	ra,286e4 <writetemp>
   12f3c:	2a051ce3          	bnez	a0,139f4 <fwscanf_main+0xae4>
/home/user/new-os-test/testsuits-for-oskernel/libc-test/src/functional/fwscanf.c:42 (discriminator 2)
   12f40:	00042503          	lw	a0,0(s0)
   12f44:	495190ef          	jal	ra,2cbd8 <strerror>
   12f48:	00050713          	mv	a4,a0
   12f4c:	000555b7          	lui	a1,0x55
   12f50:	00056537          	lui	a0,0x56
   12f54:	00100693          	li	a3,1
   12f58:	00000613          	li	a2,0
   12f5c:	ff858593          	addi	a1,a1,-8 # 54ff8 <CSWTCH.18+0x3540>
   12f60:	d1050513          	addi	a0,a0,-752 # 55d10 <CSWTCH.18+0x4258>
   12f64:	010150ef          	jal	ra,27f74 <t_printf>
/home/user/new-os-test/testsuits-for-oskernel/libc-test/src/functional/fwscanf.c:53
		TEST(i, ftell(f), 8, "%d != %d");
		TEST(i, !!feof(f), 1, "%d != %d");
		fclose(f);
	}

	TEST(i, !!(f=writetemp("[abc123]....x")), 1, "failed to make temp file");
   12f68:	00055537          	lui	a0,0x55
   12f6c:	00042023          	sw	zero,0(s0)
   12f70:	1c050513          	addi	a0,a0,448 # 551c0 <CSWTCH.18+0x3708>
   12f74:	770150ef          	jal	ra,286e4 <writetemp>
   12f78:	00050493          	mv	s1,a0
   12f7c:	060516e3          	bnez	a0,137e8 <fwscanf_main+0x8d8>
/home/user/new-os-test/testsuits-for-oskernel/libc-test/src/functional/fwscanf.c:53 (discriminator 2)
   12f80:	00042503          	lw	a0,0(s0)
   12f84:	455190ef          	jal	ra,2cbd8 <strerror>
   12f88:	00050713          	mv	a4,a0
   12f8c:	000555b7          	lui	a1,0x55
   12f90:	00056537          	lui	a0,0x56
   12f94:	00100693          	li	a3,1
   12f98:	00000613          	li	a2,0
   12f9c:	1d058593          	addi	a1,a1,464 # 551d0 <CSWTCH.18+0x3718>
   12fa0:	e9050513          	addi	a0,a0,-368 # 55e90 <CSWTCH.18+0x43d8>
   12fa4:	7d1140ef          	jal	ra,27f74 <t_printf>
/home/user/new-os-test/testsuits-for-oskernel/libc-test/src/functional/fwscanf.c:67
		TEST(i, feof(f), 0, "%d != %d");
		TEST(i, fgetwc(f), 'x', "%d != %d");
		fclose(f);
	}

	TEST(i, !!(f=writetemp("0x1p 12")), 1, "failed to make temp file");
   12fa8:	00055537          	lui	a0,0x55
   12fac:	00042023          	sw	zero,0(s0)
   12fb0:	46850513          	addi	a0,a0,1128 # 55468 <CSWTCH.18+0x39b0>
   12fb4:	730150ef          	jal	ra,286e4 <writetemp>
   12fb8:	00050493          	mv	s1,a0
   12fbc:	3c051c63          	bnez	a0,13394 <fwscanf_main+0x484>
/home/user/new-os-test/testsuits-for-oskernel/libc-test/src/functional/fwscanf.c:67 (discriminator 2)
   12fc0:	00042503          	lw	a0,0(s0)
   12fc4:	415190ef          	jal	ra,2cbd8 <strerror>
   12fc8:	00050713          	mv	a4,a0
   12fcc:	000555b7          	lui	a1,0x55
   12fd0:	00056537          	lui	a0,0x56
   12fd4:	00100693          	li	a3,1
   12fd8:	00000613          	li	a2,0
   12fdc:	47058593          	addi	a1,a1,1136 # 55470 <CSWTCH.18+0x39b8>
   12fe0:	0c850513          	addi	a0,a0,200 # 560c8 <CSWTCH.18+0x4610>
   12fe4:	791140ef          	jal	ra,27f74 <t_printf>
/home/user/new-os-test/testsuits-for-oskernel/libc-test/src/functional/fwscanf.c:91
		TEST(i, ftell(f), 7, "%d != %d");
		TEST(i, !!feof(f), 1, "%d != %d");
		fclose(f);
	}

	TEST(i, !!(f=writetemp("0x.1p4    012")), 1, "failed to make temp file");
   12fe8:	00056537          	lui	a0,0x56
   12fec:	00042023          	sw	zero,0(s0)
   12ff0:	8c850513          	addi	a0,a0,-1848 # 558c8 <CSWTCH.18+0x3e10>
   12ff4:	6f0150ef          	jal	ra,286e4 <writetemp>
   12ff8:	00050493          	mv	s1,a0
   12ffc:	1e051463          	bnez	a0,131e4 <fwscanf_main+0x2d4>
/home/user/new-os-test/testsuits-for-oskernel/libc-test/src/functional/fwscanf.c:91 (discriminator 2)
   13000:	00042503          	lw	a0,0(s0)
   13004:	3d5190ef          	jal	ra,2cbd8 <strerror>
   13008:	00050713          	mv	a4,a0
   1300c:	000565b7          	lui	a1,0x56
   13010:	00056537          	lui	a0,0x56
   13014:	00100693          	li	a3,1
   13018:	00000613          	li	a2,0
   1301c:	8d858593          	addi	a1,a1,-1832 # 558d8 <CSWTCH.18+0x3e20>
   13020:	4e850513          	addi	a0,a0,1256 # 564e8 <CSWTCH.18+0x4a30>
   13024:	751140ef          	jal	ra,27f74 <t_printf>
/home/user/new-os-test/testsuits-for-oskernel/libc-test/src/functional/fwscanf.c:104
		TEST(i, ftell(f), 13, "%d != %d");
		TEST(i, !!feof(f), 1, "%d != %d");
		fclose(f);
	}

	TEST(i, !!(f=writetemp("0xx")), 1, "failed to make temp file");
   13028:	00056537          	lui	a0,0x56
   1302c:	00042023          	sw	zero,0(s0)
   13030:	ac050513          	addi	a0,a0,-1344 # 55ac0 <CSWTCH.18+0x4008>
   13034:	6b0150ef          	jal	ra,286e4 <writetemp>
   13038:	00050493          	mv	s1,a0
   1303c:	04051663          	bnez	a0,13088 <fwscanf_main+0x178>
/home/user/new-os-test/testsuits-for-oskernel/libc-test/src/functional/fwscanf.c:104 (discriminator 2)
   13040:	00042503          	lw	a0,0(s0)
   13044:	395190ef          	jal	ra,2cbd8 <strerror>
   13048:	00050713          	mv	a4,a0
   1304c:	000565b7          	lui	a1,0x56
   13050:	00056537          	lui	a0,0x56
   13054:	00100693          	li	a3,1
   13058:	00000613          	li	a2,0
   1305c:	ac858593          	addi	a1,a1,-1336 # 55ac8 <CSWTCH.18+0x4010>
   13060:	6a850513          	addi	a0,a0,1704 # 566a8 <CSWTCH.18+0x4bf0>
   13064:	711140ef          	jal	ra,27f74 <t_printf>
/home/user/new-os-test/testsuits-for-oskernel/libc-test/src/functional/fwscanf.c:115
		TEST(i, ftell(f), 2, "%d != %d");
		TEST(i, feof(f), 0, "%d != %d");
		fclose(f);
	}

	return t_status;
   13068:	bb01a503          	lw	a0,-1104(gp) # a8a38 <_edata>
/home/user/new-os-test/testsuits-for-oskernel/libc-test/src/functional/fwscanf.c:116
}
   1306c:	10813083          	ld	ra,264(sp)
   13070:	10013403          	ld	s0,256(sp)
   13074:	0f813483          	ld	s1,248(sp)
   13078:	0f013903          	ld	s2,240(sp)
/home/user/new-os-test/testsuits-for-oskernel/libc-test/src/functional/fwscanf.c:115
	return t_status;
   1307c:	0005051b          	sext.w	a0,a0
/home/user/new-os-test/testsuits-for-oskernel/libc-test/src/functional/fwscanf.c:116
}
   13080:	11010113          	addi	sp,sp,272
   13084:	00008067          	ret
/home/user/new-os-test/testsuits-for-oskernel/libc-test/src/functional/fwscanf.c:107
		TEST(i, fwscanf(f, L"%x%n", &x, &y), 0, "%d != %d");
   13088:	000575b7          	lui	a1,0x57
/home/user/new-os-test/testsuits-for-oskernel/libc-test/src/functional/fwscanf.c:106
		x=y=-1;
   1308c:	fff00793          	li	a5,-1
/home/user/new-os-test/testsuits-for-oskernel/libc-test/src/functional/fwscanf.c:107
		TEST(i, fwscanf(f, L"%x%n", &x, &y), 0, "%d != %d");
   13090:	01010613          	addi	a2,sp,16
   13094:	00042023          	sw	zero,0(s0)
   13098:	01410693          	addi	a3,sp,20
   1309c:	85858593          	addi	a1,a1,-1960 # 56858 <CSWTCH.18+0x4da0>
/home/user/new-os-test/testsuits-for-oskernel/libc-test/src/functional/fwscanf.c:106
		x=y=-1;
   130a0:	00f12a23          	sw	a5,20(sp)
   130a4:	00f12823          	sw	a5,16(sp)
/home/user/new-os-test/testsuits-for-oskernel/libc-test/src/functional/fwscanf.c:107
		TEST(i, fwscanf(f, L"%x%n", &x, &y), 0, "%d != %d");
   130a8:	2c5260ef          	jal	ra,39b6c <fwscanf>
   130ac:	00050613          	mv	a2,a0
   130b0:	02050863          	beqz	a0,130e0 <fwscanf_main+0x1d0>
/home/user/new-os-test/testsuits-for-oskernel/libc-test/src/functional/fwscanf.c:107 (discriminator 2)
   130b4:	00042503          	lw	a0,0(s0)
   130b8:	00c13423          	sd	a2,8(sp)
   130bc:	31d190ef          	jal	ra,2cbd8 <strerror>
   130c0:	00813603          	ld	a2,8(sp)
   130c4:	00050713          	mv	a4,a0
   130c8:	000565b7          	lui	a1,0x56
   130cc:	00056537          	lui	a0,0x56
   130d0:	00000693          	li	a3,0
   130d4:	6f058593          	addi	a1,a1,1776 # 566f0 <CSWTCH.18+0x4c38>
   130d8:	71050513          	addi	a0,a0,1808 # 56710 <CSWTCH.18+0x4c58>
   130dc:	699140ef          	jal	ra,27f74 <t_printf>
/home/user/new-os-test/testsuits-for-oskernel/libc-test/src/functional/fwscanf.c:108
		TEST(i, x, -1, "%d != %d");
   130e0:	01012603          	lw	a2,16(sp)
   130e4:	00042023          	sw	zero,0(s0)
   130e8:	fff00793          	li	a5,-1
   130ec:	00c13423          	sd	a2,8(sp)
   130f0:	02f60663          	beq	a2,a5,1311c <fwscanf_main+0x20c>
/home/user/new-os-test/testsuits-for-oskernel/libc-test/src/functional/fwscanf.c:108 (discriminator 2)
   130f4:	00000513          	li	a0,0
   130f8:	2e1190ef          	jal	ra,2cbd8 <strerror>
   130fc:	00813603          	ld	a2,8(sp)
   13100:	00050713          	mv	a4,a0
   13104:	000a05b7          	lui	a1,0xa0
   13108:	00056537          	lui	a0,0x56
   1310c:	fff00693          	li	a3,-1
   13110:	b2858593          	addi	a1,a1,-1240 # 9fb28 <messages+0x1d0>
   13114:	74850513          	addi	a0,a0,1864 # 56748 <CSWTCH.18+0x4c90>
   13118:	65d140ef          	jal	ra,27f74 <t_printf>
/home/user/new-os-test/testsuits-for-oskernel/libc-test/src/functional/fwscanf.c:109
		TEST(i, y, -1, "%d != %d");
   1311c:	01412603          	lw	a2,20(sp)
   13120:	00042023          	sw	zero,0(s0)
   13124:	fff00793          	li	a5,-1
   13128:	00c13423          	sd	a2,8(sp)
   1312c:	02f60663          	beq	a2,a5,13158 <fwscanf_main+0x248>
/home/user/new-os-test/testsuits-for-oskernel/libc-test/src/functional/fwscanf.c:109 (discriminator 2)
   13130:	00000513          	li	a0,0
   13134:	2a5190ef          	jal	ra,2cbd8 <strerror>
   13138:	00813603          	ld	a2,8(sp)
   1313c:	00050713          	mv	a4,a0
   13140:	000555b7          	lui	a1,0x55
   13144:	00056537          	lui	a0,0x56
   13148:	fff00693          	li	a3,-1
   1314c:	0f058593          	addi	a1,a1,240 # 550f0 <CSWTCH.18+0x3638>
   13150:	78050513          	addi	a0,a0,1920 # 56780 <CSWTCH.18+0x4cc8>
   13154:	621140ef          	jal	ra,27f74 <t_printf>
/home/user/new-os-test/testsuits-for-oskernel/libc-test/src/functional/fwscanf.c:110
		TEST(i, ftell(f), 2, "%d != %d");
   13158:	00042023          	sw	zero,0(s0)
   1315c:	00048513          	mv	a0,s1
   13160:	640260ef          	jal	ra,397a0 <ftell>
   13164:	0005061b          	sext.w	a2,a0
   13168:	00200793          	li	a5,2
   1316c:	00c13423          	sd	a2,8(sp)
   13170:	02f60663          	beq	a2,a5,1319c <fwscanf_main+0x28c>
/home/user/new-os-test/testsuits-for-oskernel/libc-test/src/functional/fwscanf.c:110 (discriminator 2)
   13174:	00042503          	lw	a0,0(s0)
   13178:	261190ef          	jal	ra,2cbd8 <strerror>
   1317c:	00813603          	ld	a2,8(sp)
   13180:	00050713          	mv	a4,a0
   13184:	000555b7          	lui	a1,0x55
   13188:	00056537          	lui	a0,0x56
   1318c:	00200693          	li	a3,2
   13190:	13058593          	addi	a1,a1,304 # 55130 <CSWTCH.18+0x3678>
   13194:	7b850513          	addi	a0,a0,1976 # 567b8 <CSWTCH.18+0x4d00>
   13198:	5dd140ef          	jal	ra,27f74 <t_printf>
/home/user/new-os-test/testsuits-for-oskernel/libc-test/src/functional/fwscanf.c:111
		TEST(i, feof(f), 0, "%d != %d");
   1319c:	00042023          	sw	zero,0(s0)
   131a0:	00048513          	mv	a0,s1
   131a4:	530250ef          	jal	ra,386d4 <feof>
   131a8:	02050863          	beqz	a0,131d8 <fwscanf_main+0x2c8>
   131ac:	00a13423          	sd	a0,8(sp)
/home/user/new-os-test/testsuits-for-oskernel/libc-test/src/functional/fwscanf.c:111 (discriminator 2)
   131b0:	00042503          	lw	a0,0(s0)
   131b4:	225190ef          	jal	ra,2cbd8 <strerror>
   131b8:	00813603          	ld	a2,8(sp)
   131bc:	00050713          	mv	a4,a0
   131c0:	000555b7          	lui	a1,0x55
   131c4:	00056537          	lui	a0,0x56
   131c8:	00000693          	li	a3,0
   131cc:	3f058593          	addi	a1,a1,1008 # 553f0 <CSWTCH.18+0x3938>
   131d0:	7f050513          	addi	a0,a0,2032 # 567f0 <CSWTCH.18+0x4d38>
   131d4:	5a1140ef          	jal	ra,27f74 <t_printf>
/home/user/new-os-test/testsuits-for-oskernel/libc-test/src/functional/fwscanf.c:112
		fclose(f);
   131d8:	00048513          	mv	a0,s1
   131dc:	42c250ef          	jal	ra,38608 <fclose>
   131e0:	e89ff06f          	j	13068 <fwscanf_main+0x158>
/home/user/new-os-test/testsuits-for-oskernel/libc-test/src/functional/fwscanf.c:93
		x=y=-1;
   131e4:	fff00793          	li	a5,-1
   131e8:	00f12a23          	sw	a5,20(sp)
   131ec:	00f12823          	sw	a5,16(sp)
/home/user/new-os-test/testsuits-for-oskernel/libc-test/src/functional/fwscanf.c:94
		u=-1;
   131f0:	8181b787          	fld	fa5,-2024(gp) # a86a0 <__SDATA_BEGIN__+0x18>
/home/user/new-os-test/testsuits-for-oskernel/libc-test/src/functional/fwscanf.c:95
		TEST(i, fwscanf(f, L"%lf%n %i", &u, &x, &y), 2, "%d != %d");
   131f4:	000575b7          	lui	a1,0x57
   131f8:	01810613          	addi	a2,sp,24
   131fc:	00042023          	sw	zero,0(s0)
   13200:	01410713          	addi	a4,sp,20
   13204:	01010693          	addi	a3,sp,16
   13208:	87058593          	addi	a1,a1,-1936 # 56870 <CSWTCH.18+0x4db8>
/home/user/new-os-test/testsuits-for-oskernel/libc-test/src/functional/fwscanf.c:94
		u=-1;
   1320c:	00f13c27          	fsd	fa5,24(sp)
/home/user/new-os-test/testsuits-for-oskernel/libc-test/src/functional/fwscanf.c:95
		TEST(i, fwscanf(f, L"%lf%n %i", &u, &x, &y), 2, "%d != %d");
   13210:	15d260ef          	jal	ra,39b6c <fwscanf>
   13214:	00200793          	li	a5,2
   13218:	00050613          	mv	a2,a0
   1321c:	02f50863          	beq	a0,a5,1324c <fwscanf_main+0x33c>
/home/user/new-os-test/testsuits-for-oskernel/libc-test/src/functional/fwscanf.c:95 (discriminator 2)
   13220:	00042503          	lw	a0,0(s0)
   13224:	00c13423          	sd	a2,8(sp)
   13228:	1b1190ef          	jal	ra,2cbd8 <strerror>
   1322c:	00813603          	ld	a2,8(sp)
   13230:	00050713          	mv	a4,a0
   13234:	000565b7          	lui	a1,0x56
   13238:	00056537          	lui	a0,0x56
   1323c:	00200693          	li	a3,2
   13240:	53058593          	addi	a1,a1,1328 # 56530 <CSWTCH.18+0x4a78>
   13244:	55850513          	addi	a0,a0,1368 # 56558 <CSWTCH.18+0x4aa0>
   13248:	52d140ef          	jal	ra,27f74 <t_printf>
/home/user/new-os-test/testsuits-for-oskernel/libc-test/src/functional/fwscanf.c:96
		TEST(u, u, 1.0, "%g != %g");
   1324c:	01813787          	fld	fa5,24(sp)
   13250:	8201b707          	fld	fa4,-2016(gp) # a86a8 <__SDATA_BEGIN__+0x20>
   13254:	00042023          	sw	zero,0(s0)
   13258:	a2e7a7d3          	feq.d	a5,fa5,fa4
   1325c:	02079c63          	bnez	a5,13294 <fwscanf_main+0x384>
/home/user/new-os-test/testsuits-for-oskernel/libc-test/src/functional/fwscanf.c:96 (discriminator 2)
   13260:	00000513          	li	a0,0
   13264:	00f13427          	fsd	fa5,8(sp)
   13268:	171190ef          	jal	ra,2cbd8 <strerror>
   1326c:	8201b707          	fld	fa4,-2016(gp) # a86a8 <__SDATA_BEGIN__+0x20>
   13270:	00813787          	fld	fa5,8(sp)
   13274:	00050713          	mv	a4,a0
   13278:	e20706d3          	fmv.x.d	a3,fa4
   1327c:	e2078653          	fmv.x.d	a2,fa5
   13280:	000555b7          	lui	a1,0x55
   13284:	00056537          	lui	a0,0x56
   13288:	53858593          	addi	a1,a1,1336 # 55538 <CSWTCH.18+0x3a80>
   1328c:	59050513          	addi	a0,a0,1424 # 56590 <CSWTCH.18+0x4ad8>
   13290:	4e5140ef          	jal	ra,27f74 <t_printf>
/home/user/new-os-test/testsuits-for-oskernel/libc-test/src/functional/fwscanf.c:97
		TEST(i, x, 6, "%d != %d");
   13294:	01012603          	lw	a2,16(sp)
   13298:	00042023          	sw	zero,0(s0)
   1329c:	00600793          	li	a5,6
   132a0:	00c13423          	sd	a2,8(sp)
   132a4:	02f60663          	beq	a2,a5,132d0 <fwscanf_main+0x3c0>
/home/user/new-os-test/testsuits-for-oskernel/libc-test/src/functional/fwscanf.c:97 (discriminator 2)
   132a8:	00000513          	li	a0,0
   132ac:	12d190ef          	jal	ra,2cbd8 <strerror>
   132b0:	00813603          	ld	a2,8(sp)
   132b4:	00050713          	mv	a4,a0
   132b8:	000a05b7          	lui	a1,0xa0
   132bc:	00056537          	lui	a0,0x56
   132c0:	00600693          	li	a3,6
   132c4:	b2858593          	addi	a1,a1,-1240 # 9fb28 <messages+0x1d0>
   132c8:	5c850513          	addi	a0,a0,1480 # 565c8 <CSWTCH.18+0x4b10>
   132cc:	4a9140ef          	jal	ra,27f74 <t_printf>
/home/user/new-os-test/testsuits-for-oskernel/libc-test/src/functional/fwscanf.c:98
		TEST(i, y, 10, "%d != %d");
   132d0:	01412603          	lw	a2,20(sp)
   132d4:	00042023          	sw	zero,0(s0)
   132d8:	00a00793          	li	a5,10
   132dc:	00c13423          	sd	a2,8(sp)
   132e0:	02f60663          	beq	a2,a5,1330c <fwscanf_main+0x3fc>
/home/user/new-os-test/testsuits-for-oskernel/libc-test/src/functional/fwscanf.c:98 (discriminator 2)
   132e4:	00000513          	li	a0,0
   132e8:	0f1190ef          	jal	ra,2cbd8 <strerror>
   132ec:	00813603          	ld	a2,8(sp)
   132f0:	00050713          	mv	a4,a0
   132f4:	000555b7          	lui	a1,0x55
   132f8:	00056537          	lui	a0,0x56
   132fc:	00a00693          	li	a3,10
   13300:	0f058593          	addi	a1,a1,240 # 550f0 <CSWTCH.18+0x3638>
   13304:	60050513          	addi	a0,a0,1536 # 56600 <CSWTCH.18+0x4b48>
   13308:	46d140ef          	jal	ra,27f74 <t_printf>
/home/user/new-os-test/testsuits-for-oskernel/libc-test/src/functional/fwscanf.c:99
		TEST(i, ftell(f), 13, "%d != %d");
   1330c:	00042023          	sw	zero,0(s0)
   13310:	00048513          	mv	a0,s1
   13314:	48c260ef          	jal	ra,397a0 <ftell>
   13318:	0005061b          	sext.w	a2,a0
   1331c:	00d00793          	li	a5,13
   13320:	00c13423          	sd	a2,8(sp)
   13324:	02f60663          	beq	a2,a5,13350 <fwscanf_main+0x440>
/home/user/new-os-test/testsuits-for-oskernel/libc-test/src/functional/fwscanf.c:99 (discriminator 2)
   13328:	00042503          	lw	a0,0(s0)
   1332c:	0ad190ef          	jal	ra,2cbd8 <strerror>
   13330:	00813603          	ld	a2,8(sp)
   13334:	00050713          	mv	a4,a0
   13338:	000555b7          	lui	a1,0x55
   1333c:	00056537          	lui	a0,0x56
   13340:	00d00693          	li	a3,13
   13344:	13058593          	addi	a1,a1,304 # 55130 <CSWTCH.18+0x3678>
   13348:	63850513          	addi	a0,a0,1592 # 56638 <CSWTCH.18+0x4b80>
   1334c:	429140ef          	jal	ra,27f74 <t_printf>
/home/user/new-os-test/testsuits-for-oskernel/libc-test/src/functional/fwscanf.c:100
		TEST(i, !!feof(f), 1, "%d != %d");
   13350:	00042023          	sw	zero,0(s0)
   13354:	00048513          	mv	a0,s1
   13358:	37c250ef          	jal	ra,386d4 <feof>
   1335c:	02051663          	bnez	a0,13388 <fwscanf_main+0x478>
/home/user/new-os-test/testsuits-for-oskernel/libc-test/src/functional/fwscanf.c:100 (discriminator 2)
   13360:	00042503          	lw	a0,0(s0)
   13364:	075190ef          	jal	ra,2cbd8 <strerror>
   13368:	00050713          	mv	a4,a0
   1336c:	000555b7          	lui	a1,0x55
   13370:	00056537          	lui	a0,0x56
   13374:	00100693          	li	a3,1
   13378:	00000613          	li	a2,0
   1337c:	17858593          	addi	a1,a1,376 # 55178 <CSWTCH.18+0x36c0>
   13380:	67050513          	addi	a0,a0,1648 # 56670 <CSWTCH.18+0x4bb8>
   13384:	3f1140ef          	jal	ra,27f74 <t_printf>
/home/user/new-os-test/testsuits-for-oskernel/libc-test/src/functional/fwscanf.c:101
		fclose(f);
   13388:	00048513          	mv	a0,s1
   1338c:	27c250ef          	jal	ra,38608 <fclose>
   13390:	c99ff06f          	j	13028 <fwscanf_main+0x118>
/home/user/new-os-test/testsuits-for-oskernel/libc-test/src/functional/fwscanf.c:70
		u=-1;
   13394:	8181b787          	fld	fa5,-2024(gp) # a86a0 <__SDATA_BEGIN__+0x18>
/home/user/new-os-test/testsuits-for-oskernel/libc-test/src/functional/fwscanf.c:71
		TEST(i, fwscanf(f, L"%lf%n %d", &u, &x, &y), 0, "%d != %d");
   13398:	000575b7          	lui	a1,0x57
/home/user/new-os-test/testsuits-for-oskernel/libc-test/src/functional/fwscanf.c:69
		x=y=-1;
   1339c:	fff00793          	li	a5,-1
/home/user/new-os-test/testsuits-for-oskernel/libc-test/src/functional/fwscanf.c:71
		TEST(i, fwscanf(f, L"%lf%n %d", &u, &x, &y), 0, "%d != %d");
   133a0:	01810613          	addi	a2,sp,24
   133a4:	00042023          	sw	zero,0(s0)
   133a8:	01410713          	addi	a4,sp,20
   133ac:	01010693          	addi	a3,sp,16
   133b0:	89858593          	addi	a1,a1,-1896 # 56898 <CSWTCH.18+0x4de0>
/home/user/new-os-test/testsuits-for-oskernel/libc-test/src/functional/fwscanf.c:69
		x=y=-1;
   133b4:	00f12a23          	sw	a5,20(sp)
   133b8:	00f12823          	sw	a5,16(sp)
/home/user/new-os-test/testsuits-for-oskernel/libc-test/src/functional/fwscanf.c:70
		u=-1;
   133bc:	00f13c27          	fsd	fa5,24(sp)
/home/user/new-os-test/testsuits-for-oskernel/libc-test/src/functional/fwscanf.c:71
		TEST(i, fwscanf(f, L"%lf%n %d", &u, &x, &y), 0, "%d != %d");
   133c0:	7ac260ef          	jal	ra,39b6c <fwscanf>
   133c4:	00050613          	mv	a2,a0
   133c8:	02050863          	beqz	a0,133f8 <fwscanf_main+0x4e8>
/home/user/new-os-test/testsuits-for-oskernel/libc-test/src/functional/fwscanf.c:71 (discriminator 2)
   133cc:	00042503          	lw	a0,0(s0)
   133d0:	00c13423          	sd	a2,8(sp)
   133d4:	005190ef          	jal	ra,2cbd8 <strerror>
   133d8:	00813603          	ld	a2,8(sp)
   133dc:	00050713          	mv	a4,a0
   133e0:	000565b7          	lui	a1,0x56
   133e4:	00056537          	lui	a0,0x56
   133e8:	00000693          	li	a3,0
   133ec:	11058593          	addi	a1,a1,272 # 56110 <CSWTCH.18+0x4658>
   133f0:	13850513          	addi	a0,a0,312 # 56138 <CSWTCH.18+0x4680>
   133f4:	381140ef          	jal	ra,27f74 <t_printf>
/home/user/new-os-test/testsuits-for-oskernel/libc-test/src/functional/fwscanf.c:72
		TEST(u, u, -1.0, "%g != %g");
   133f8:	01813787          	fld	fa5,24(sp)
   133fc:	8181b707          	fld	fa4,-2024(gp) # a86a0 <__SDATA_BEGIN__+0x18>
   13400:	00042023          	sw	zero,0(s0)
   13404:	a2e7a7d3          	feq.d	a5,fa5,fa4
   13408:	02079c63          	bnez	a5,13440 <fwscanf_main+0x530>
/home/user/new-os-test/testsuits-for-oskernel/libc-test/src/functional/fwscanf.c:72 (discriminator 2)
   1340c:	00000513          	li	a0,0
   13410:	00f13427          	fsd	fa5,8(sp)
   13414:	7c4190ef          	jal	ra,2cbd8 <strerror>
   13418:	8181b707          	fld	fa4,-2024(gp) # a86a0 <__SDATA_BEGIN__+0x18>
   1341c:	00813787          	fld	fa5,8(sp)
   13420:	00050713          	mv	a4,a0
   13424:	e20706d3          	fmv.x.d	a3,fa4
   13428:	e2078653          	fmv.x.d	a2,fa5
   1342c:	000555b7          	lui	a1,0x55
   13430:	00056537          	lui	a0,0x56
   13434:	53858593          	addi	a1,a1,1336 # 55538 <CSWTCH.18+0x3a80>
   13438:	17050513          	addi	a0,a0,368 # 56170 <CSWTCH.18+0x46b8>
   1343c:	339140ef          	jal	ra,27f74 <t_printf>
/home/user/new-os-test/testsuits-for-oskernel/libc-test/src/functional/fwscanf.c:73
		TEST(i, x, -1, "%d != %d");
   13440:	01012603          	lw	a2,16(sp)
   13444:	00042023          	sw	zero,0(s0)
   13448:	fff00793          	li	a5,-1
   1344c:	00c13423          	sd	a2,8(sp)
   13450:	02f60663          	beq	a2,a5,1347c <fwscanf_main+0x56c>
/home/user/new-os-test/testsuits-for-oskernel/libc-test/src/functional/fwscanf.c:73 (discriminator 2)
   13454:	00000513          	li	a0,0
   13458:	780190ef          	jal	ra,2cbd8 <strerror>
   1345c:	00813603          	ld	a2,8(sp)
   13460:	00050713          	mv	a4,a0
   13464:	000a05b7          	lui	a1,0xa0
   13468:	00056537          	lui	a0,0x56
   1346c:	fff00693          	li	a3,-1
   13470:	b2858593          	addi	a1,a1,-1240 # 9fb28 <messages+0x1d0>
   13474:	1a850513          	addi	a0,a0,424 # 561a8 <CSWTCH.18+0x46f0>
   13478:	2fd140ef          	jal	ra,27f74 <t_printf>
/home/user/new-os-test/testsuits-for-oskernel/libc-test/src/functional/fwscanf.c:74
		TEST(i, y, -1, "%d != %d");
   1347c:	01412603          	lw	a2,20(sp)
   13480:	00042023          	sw	zero,0(s0)
   13484:	fff00793          	li	a5,-1
   13488:	00c13423          	sd	a2,8(sp)
   1348c:	02f60663          	beq	a2,a5,134b8 <fwscanf_main+0x5a8>
/home/user/new-os-test/testsuits-for-oskernel/libc-test/src/functional/fwscanf.c:74 (discriminator 2)
   13490:	00000513          	li	a0,0
   13494:	744190ef          	jal	ra,2cbd8 <strerror>
   13498:	00813603          	ld	a2,8(sp)
   1349c:	00050713          	mv	a4,a0
   134a0:	000555b7          	lui	a1,0x55
   134a4:	00056537          	lui	a0,0x56
   134a8:	fff00693          	li	a3,-1
   134ac:	0f058593          	addi	a1,a1,240 # 550f0 <CSWTCH.18+0x3638>
   134b0:	1e050513          	addi	a0,a0,480 # 561e0 <CSWTCH.18+0x4728>
   134b4:	2c1140ef          	jal	ra,27f74 <t_printf>
/home/user/new-os-test/testsuits-for-oskernel/libc-test/src/functional/fwscanf.c:75
		TEST(i, ftell(f), 4, "%d != %d");
   134b8:	00042023          	sw	zero,0(s0)
   134bc:	00048513          	mv	a0,s1
   134c0:	2e0260ef          	jal	ra,397a0 <ftell>
   134c4:	0005061b          	sext.w	a2,a0
   134c8:	00400793          	li	a5,4
   134cc:	00c13423          	sd	a2,8(sp)
   134d0:	02f60663          	beq	a2,a5,134fc <fwscanf_main+0x5ec>
/home/user/new-os-test/testsuits-for-oskernel/libc-test/src/functional/fwscanf.c:75 (discriminator 2)
   134d4:	00042503          	lw	a0,0(s0)
   134d8:	700190ef          	jal	ra,2cbd8 <strerror>
   134dc:	00813603          	ld	a2,8(sp)
   134e0:	00050713          	mv	a4,a0
   134e4:	000555b7          	lui	a1,0x55
   134e8:	00056537          	lui	a0,0x56
   134ec:	00400693          	li	a3,4
   134f0:	13058593          	addi	a1,a1,304 # 55130 <CSWTCH.18+0x3678>
   134f4:	21850513          	addi	a0,a0,536 # 56218 <CSWTCH.18+0x4760>
   134f8:	27d140ef          	jal	ra,27f74 <t_printf>
/home/user/new-os-test/testsuits-for-oskernel/libc-test/src/functional/fwscanf.c:76
		TEST(i, feof(f), 0, "%d != %d");
   134fc:	00042023          	sw	zero,0(s0)
   13500:	00048513          	mv	a0,s1
   13504:	1d0250ef          	jal	ra,386d4 <feof>
   13508:	02050863          	beqz	a0,13538 <fwscanf_main+0x628>
   1350c:	00a13423          	sd	a0,8(sp)
/home/user/new-os-test/testsuits-for-oskernel/libc-test/src/functional/fwscanf.c:76 (discriminator 2)
   13510:	00042503          	lw	a0,0(s0)
   13514:	6c4190ef          	jal	ra,2cbd8 <strerror>
   13518:	00813603          	ld	a2,8(sp)
   1351c:	00050713          	mv	a4,a0
   13520:	000555b7          	lui	a1,0x55
   13524:	00056537          	lui	a0,0x56
   13528:	00000693          	li	a3,0
   1352c:	3f058593          	addi	a1,a1,1008 # 553f0 <CSWTCH.18+0x3938>
   13530:	25050513          	addi	a0,a0,592 # 56250 <CSWTCH.18+0x4798>
   13534:	241140ef          	jal	ra,27f74 <t_printf>
/home/user/new-os-test/testsuits-for-oskernel/libc-test/src/functional/fwscanf.c:77
		TEST(i, fgetwc(f), ' ', "%d != %d");
   13538:	00042023          	sw	zero,0(s0)
   1353c:	00048513          	mv	a0,s1
   13540:	7b4250ef          	jal	ra,38cf4 <fgetwc>
   13544:	0005061b          	sext.w	a2,a0
   13548:	02000793          	li	a5,32
   1354c:	00c13423          	sd	a2,8(sp)
   13550:	02f60663          	beq	a2,a5,1357c <fwscanf_main+0x66c>
/home/user/new-os-test/testsuits-for-oskernel/libc-test/src/functional/fwscanf.c:77 (discriminator 2)
   13554:	00042503          	lw	a0,0(s0)
   13558:	680190ef          	jal	ra,2cbd8 <strerror>
   1355c:	00813603          	ld	a2,8(sp)
   13560:	00050713          	mv	a4,a0
   13564:	000565b7          	lui	a1,0x56
   13568:	00056537          	lui	a0,0x56
   1356c:	02000693          	li	a3,32
   13570:	08058593          	addi	a1,a1,128 # 56080 <CSWTCH.18+0x45c8>
   13574:	28850513          	addi	a0,a0,648 # 56288 <CSWTCH.18+0x47d0>
   13578:	1fd140ef          	jal	ra,27f74 <t_printf>
/home/user/new-os-test/testsuits-for-oskernel/libc-test/src/functional/fwscanf.c:78
		rewind(f);
